ccopy_reg
_reconstructor
p0
(cpandas.core.frame
DataFrame
p1
c__builtin__
object
p2
Ntp3
Rp4
(dp5
S'_metadata'
p6
(lp7
sS'_typ'
p8
S'dataframe'
p9
sS'_data'
p10
g0
(cpandas.core.internals
BlockManager
p11
g2
Ntp12
Rp13
((lp14
cpandas.core.indexes.base
_new_Index
p15
(cpandas.core.indexes.base
Index
p16
(dp17
S'data'
p18
cnumpy.core.multiarray
_reconstruct
p19
(cnumpy
ndarray
p20
(I0
tp21
S'b'
p22
tp23
Rp24
(I1
(I248
tp25
cnumpy
dtype
p26
(S'O8'
p27
I0
I1
tp28
Rp29
(I3
S'|'
p30
NNNI-1
I-1
I63
tp31
bI00
(lp32
S'year'
p33
aS'type'
p34
aS'procOriginal'
p35
aS'proc'
p36
aS'proc_s0'
p37
aS'cat'
p38
aS'inputWSFile'
p39
aS'nominalDataName'
p40
aS'modelWSFile'
p41
aS'model'
p42
aS'rate'
p43
aS'nominal_yield'
p44
aS'sumw2'
p45
aS'nominal_yield_COWCorr'
p46
aS'weight_Pileup_up_yield'
p47
aS'weight_Pileup_down_yield'
p48
aS'weight_TriggerSF_up_yield'
p49
aS'weight_TriggerSF_down_yield'
p50
aS'weight_ElectronVetoSF_up_yield'
p51
aS'weight_ElectronVetoSF_down_yield'
p52
aS'weight_PreselSF_up_yield'
p53
aS'weight_PreselSF_down_yield'
p54
aS'energyErrShift_up_yield'
p55
aS'energyErrShift_down_yield'
p56
aS'weight_LHEScal_0_yield'
p57
aS'weight_LHEScal_0_yield_COWCorr'
p58
aS'weight_LHEScal_1_yield'
p59
aS'weight_LHEScal_1_yield_COWCorr'
p60
aS'weight_LHEScal_3_yield'
p61
aS'weight_LHEScal_3_yield_COWCorr'
p62
aS'weight_LHEScal_5_yield'
p63
aS'weight_LHEScal_5_yield_COWCorr'
p64
aS'weight_LHEScal_7_yield'
p65
aS'weight_LHEScal_7_yield_COWCorr'
p66
aS'weight_LHEScal_8_yield'
p67
aS'weight_LHEScal_8_yield_COWCorr'
p68
aS'weight_AlphaS_up_yield'
p69
aS'weight_AlphaS_down_yield'
p70
aS'weight_AlphaS_up_yield_COWCorr'
p71
aS'weight_AlphaS_down_yield_COWCorr'
p72
aS'weight_PS_ISR_up_yield'
p73
aS'weight_PS_ISR_down_yield'
p74
aS'weight_PS_ISR_up_yield_COWCorr'
p75
aS'weight_PS_ISR_down_yield_COWCorr'
p76
aS'weight_PS_FSR_up_yield'
p77
aS'weight_PS_FSR_down_yield'
p78
aS'weight_PS_FSR_up_yield_COWCorr'
p79
aS'weight_PS_FSR_down_yield_COWCorr'
p80
aS'weight_LHEPd_1_yield'
p81
aS'weight_LHEPd_1_yield_COWCorr'
p82
aS'weight_LHEPd_2_yield'
p83
aS'weight_LHEPd_2_yield_COWCorr'
p84
aS'weight_LHEPd_3_yield'
p85
aS'weight_LHEPd_3_yield_COWCorr'
p86
aS'weight_LHEPd_4_yield'
p87
aS'weight_LHEPd_4_yield_COWCorr'
p88
aS'weight_LHEPd_5_yield'
p89
aS'weight_LHEPd_5_yield_COWCorr'
p90
aS'weight_LHEPd_6_yield'
p91
aS'weight_LHEPd_6_yield_COWCorr'
p92
aS'weight_LHEPd_7_yield'
p93
aS'weight_LHEPd_7_yield_COWCorr'
p94
aS'weight_LHEPd_8_yield'
p95
aS'weight_LHEPd_8_yield_COWCorr'
p96
aS'weight_LHEPd_9_yield'
p97
aS'weight_LHEPd_9_yield_COWCorr'
p98
aS'weight_LHEPd_10_yield'
p99
aS'weight_LHEPd_10_yield_COWCorr'
p100
aS'weight_LHEPd_11_yield'
p101
aS'weight_LHEPd_11_yield_COWCorr'
p102
aS'weight_LHEPd_12_yield'
p103
aS'weight_LHEPd_12_yield_COWCorr'
p104
aS'weight_LHEPd_13_yield'
p105
aS'weight_LHEPd_13_yield_COWCorr'
p106
aS'weight_LHEPd_14_yield'
p107
aS'weight_LHEPd_14_yield_COWCorr'
p108
aS'weight_LHEPd_15_yield'
p109
aS'weight_LHEPd_15_yield_COWCorr'
p110
aS'weight_LHEPd_16_yield'
p111
aS'weight_LHEPd_16_yield_COWCorr'
p112
aS'weight_LHEPd_17_yield'
p113
aS'weight_LHEPd_17_yield_COWCorr'
p114
aS'weight_LHEPd_18_yield'
p115
aS'weight_LHEPd_18_yield_COWCorr'
p116
aS'weight_LHEPd_19_yield'
p117
aS'weight_LHEPd_19_yield_COWCorr'
p118
aS'weight_LHEPd_20_yield'
p119
aS'weight_LHEPd_20_yield_COWCorr'
p120
aS'weight_LHEPd_21_yield'
p121
aS'weight_LHEPd_21_yield_COWCorr'
p122
aS'weight_LHEPd_22_yield'
p123
aS'weight_LHEPd_22_yield_COWCorr'
p124
aS'weight_LHEPd_23_yield'
p125
aS'weight_LHEPd_23_yield_COWCorr'
p126
aS'weight_LHEPd_24_yield'
p127
aS'weight_LHEPd_24_yield_COWCorr'
p128
aS'weight_LHEPd_25_yield'
p129
aS'weight_LHEPd_25_yield_COWCorr'
p130
aS'weight_LHEPd_26_yield'
p131
aS'weight_LHEPd_26_yield_COWCorr'
p132
aS'weight_LHEPd_27_yield'
p133
aS'weight_LHEPd_27_yield_COWCorr'
p134
aS'weight_LHEPd_28_yield'
p135
aS'weight_LHEPd_28_yield_COWCorr'
p136
aS'weight_LHEPd_29_yield'
p137
aS'weight_LHEPd_29_yield_COWCorr'
p138
aS'weight_LHEPd_30_yield'
p139
aS'weight_LHEPd_30_yield_COWCorr'
p140
aS'weight_LHEPd_31_yield'
p141
aS'weight_LHEPd_31_yield_COWCorr'
p142
aS'weight_LHEPd_32_yield'
p143
aS'weight_LHEPd_32_yield_COWCorr'
p144
aS'weight_LHEPd_33_yield'
p145
aS'weight_LHEPd_33_yield_COWCorr'
p146
aS'weight_LHEPd_34_yield'
p147
aS'weight_LHEPd_34_yield_COWCorr'
p148
aS'weight_LHEPd_35_yield'
p149
aS'weight_LHEPd_35_yield_COWCorr'
p150
aS'weight_LHEPd_36_yield'
p151
aS'weight_LHEPd_36_yield_COWCorr'
p152
aS'weight_LHEPd_37_yield'
p153
aS'weight_LHEPd_37_yield_COWCorr'
p154
aS'weight_LHEPd_38_yield'
p155
aS'weight_LHEPd_38_yield_COWCorr'
p156
aS'weight_LHEPd_39_yield'
p157
aS'weight_LHEPd_39_yield_COWCorr'
p158
aS'weight_LHEPd_40_yield'
p159
aS'weight_LHEPd_40_yield_COWCorr'
p160
aS'weight_LHEPd_41_yield'
p161
aS'weight_LHEPd_41_yield_COWCorr'
p162
aS'weight_LHEPd_42_yield'
p163
aS'weight_LHEPd_42_yield_COWCorr'
p164
aS'weight_LHEPd_43_yield'
p165
aS'weight_LHEPd_43_yield_COWCorr'
p166
aS'weight_LHEPd_44_yield'
p167
aS'weight_LHEPd_44_yield_COWCorr'
p168
aS'weight_LHEPd_45_yield'
p169
aS'weight_LHEPd_45_yield_COWCorr'
p170
aS'weight_LHEPd_46_yield'
p171
aS'weight_LHEPd_46_yield_COWCorr'
p172
aS'weight_LHEPd_47_yield'
p173
aS'weight_LHEPd_47_yield_COWCorr'
p174
aS'weight_LHEPd_48_yield'
p175
aS'weight_LHEPd_48_yield_COWCorr'
p176
aS'weight_LHEPd_49_yield'
p177
aS'weight_LHEPd_49_yield_COWCorr'
p178
aS'weight_LHEPd_50_yield'
p179
aS'weight_LHEPd_50_yield_COWCorr'
p180
aS'weight_LHEPd_51_yield'
p181
aS'weight_LHEPd_51_yield_COWCorr'
p182
aS'weight_LHEPd_52_yield'
p183
aS'weight_LHEPd_52_yield_COWCorr'
p184
aS'weight_LHEPd_53_yield'
p185
aS'weight_LHEPd_53_yield_COWCorr'
p186
aS'weight_LHEPd_54_yield'
p187
aS'weight_LHEPd_54_yield_COWCorr'
p188
aS'weight_LHEPd_55_yield'
p189
aS'weight_LHEPd_55_yield_COWCorr'
p190
aS'weight_LHEPd_56_yield'
p191
aS'weight_LHEPd_56_yield_COWCorr'
p192
aS'weight_LHEPd_57_yield'
p193
aS'weight_LHEPd_57_yield_COWCorr'
p194
aS'weight_LHEPd_58_yield'
p195
aS'weight_LHEPd_58_yield_COWCorr'
p196
aS'weight_LHEPd_59_yield'
p197
aS'weight_LHEPd_59_yield_COWCorr'
p198
aS'weight_LHEPd_60_yield'
p199
aS'weight_LHEPd_60_yield_COWCorr'
p200
aS'weight_LHEPd_61_yield'
p201
aS'weight_LHEPd_61_yield_COWCorr'
p202
aS'weight_LHEPd_62_yield'
p203
aS'weight_LHEPd_62_yield_COWCorr'
p204
aS'weight_LHEPd_63_yield'
p205
aS'weight_LHEPd_63_yield_COWCorr'
p206
aS'weight_LHEPd_64_yield'
p207
aS'weight_LHEPd_64_yield_COWCorr'
p208
aS'weight_LHEPd_65_yield'
p209
aS'weight_LHEPd_65_yield_COWCorr'
p210
aS'weight_LHEPd_66_yield'
p211
aS'weight_LHEPd_66_yield_COWCorr'
p212
aS'weight_LHEPd_67_yield'
p213
aS'weight_LHEPd_67_yield_COWCorr'
p214
aS'weight_LHEPd_68_yield'
p215
aS'weight_LHEPd_68_yield_COWCorr'
p216
aS'weight_LHEPd_69_yield'
p217
aS'weight_LHEPd_69_yield_COWCorr'
p218
aS'weight_LHEPd_70_yield'
p219
aS'weight_LHEPd_70_yield_COWCorr'
p220
aS'weight_LHEPd_71_yield'
p221
aS'weight_LHEPd_71_yield_COWCorr'
p222
aS'weight_LHEPd_72_yield'
p223
aS'weight_LHEPd_72_yield_COWCorr'
p224
aS'weight_LHEPd_73_yield'
p225
aS'weight_LHEPd_73_yield_COWCorr'
p226
aS'weight_LHEPd_74_yield'
p227
aS'weight_LHEPd_74_yield_COWCorr'
p228
aS'weight_LHEPd_75_yield'
p229
aS'weight_LHEPd_75_yield_COWCorr'
p230
aS'weight_LHEPd_76_yield'
p231
aS'weight_LHEPd_76_yield_COWCorr'
p232
aS'weight_LHEPd_77_yield'
p233
aS'weight_LHEPd_77_yield_COWCorr'
p234
aS'weight_LHEPd_78_yield'
p235
aS'weight_LHEPd_78_yield_COWCorr'
p236
aS'weight_LHEPd_79_yield'
p237
aS'weight_LHEPd_79_yield_COWCorr'
p238
aS'weight_LHEPd_80_yield'
p239
aS'weight_LHEPd_80_yield_COWCorr'
p240
aS'weight_LHEPd_81_yield'
p241
aS'weight_LHEPd_81_yield_COWCorr'
p242
aS'weight_LHEPd_82_yield'
p243
aS'weight_LHEPd_82_yield_COWCorr'
p244
aS'weight_LHEPd_83_yield'
p245
aS'weight_LHEPd_83_yield_COWCorr'
p246
aS'weight_LHEPd_84_yield'
p247
aS'weight_LHEPd_84_yield_COWCorr'
p248
aS'weight_LHEPd_85_yield'
p249
aS'weight_LHEPd_85_yield_COWCorr'
p250
aS'weight_LHEPd_86_yield'
p251
aS'weight_LHEPd_86_yield_COWCorr'
p252
aS'weight_LHEPd_87_yield'
p253
aS'weight_LHEPd_87_yield_COWCorr'
p254
aS'weight_LHEPd_88_yield'
p255
aS'weight_LHEPd_88_yield_COWCorr'
p256
aS'weight_LHEPd_89_yield'
p257
aS'weight_LHEPd_89_yield_COWCorr'
p258
aS'weight_LHEPd_90_yield'
p259
aS'weight_LHEPd_90_yield_COWCorr'
p260
aS'weight_LHEPd_91_yield'
p261
aS'weight_LHEPd_91_yield_COWCorr'
p262
aS'weight_LHEPd_92_yield'
p263
aS'weight_LHEPd_92_yield_COWCorr'
p264
aS'weight_LHEPd_93_yield'
p265
aS'weight_LHEPd_93_yield_COWCorr'
p266
aS'weight_LHEPd_94_yield'
p267
aS'weight_LHEPd_94_yield_COWCorr'
p268
aS'weight_LHEPd_95_yield'
p269
aS'weight_LHEPd_95_yield_COWCorr'
p270
aS'weight_LHEPd_96_yield'
p271
aS'weight_LHEPd_96_yield_COWCorr'
p272
aS'weight_LHEPd_97_yield'
p273
aS'weight_LHEPd_97_yield_COWCorr'
p274
aS'weight_LHEPd_98_yield'
p275
aS'weight_LHEPd_98_yield_COWCorr'
p276
aS'weight_LHEPd_99_yield'
p277
aS'weight_LHEPd_99_yield_COWCorr'
p278
aS'weight_LHEPd_100_yield'
p279
aS'weight_LHEPd_100_yield_COWCorr'
p280
atp281
bsS'name'
p282
Nstp283
Rp284
ag15
(cpandas.core.indexes.numeric
Int64Index
p285
(dp286
g18
g19
(g20
(I0
tp287
g22
tp288
Rp289
(I1
(I6
tp290
g26
(S'i8'
p291
I0
I1
tp292
Rp293
(I3
S'<'
p294
NNNI-1
I-1
I0
tp295
bI00
S'\x00\x00\x00\x00\x00\x00\x00\x00\x01\x00\x00\x00\x00\x00\x00\x00\x02\x00\x00\x00\x00\x00\x00\x00\x03\x00\x00\x00\x00\x00\x00\x00\x04\x00\x00\x00\x00\x00\x00\x00\x05\x00\x00\x00\x00\x00\x00\x00'
p296
tp297
bsg282
Nstp298
Rp299
a(lp300
g19
(g20
(I0
tp301
g22
tp302
Rp303
(I1
(I1
I6
tp304
g26
(S'f8'
p305
I0
I1
tp306
Rp307
(I3
S'<'
p308
NNNI-1
I-1
I0
tp309
bI00
S'\x00\x00\x00\x00\x00\xa4\xbf@\x00\x00\x00\x00\x00\xa4\xbf@\x00\x00\x00\x00\x00^\xda@\x00\x00\x00\x00\x00^\xda@\x00\x00\x00\x00\x00\x00\xf0?\x00\x00\x00\x00\x00\x00\xf0\xbf'
p310
tp311
bag19
(g20
(I0
tp312
g22
tp313
Rp314
(I1
(I247
I6
tp315
g29
I00
(lp316
S'2022preEE'
p317
ag317
aS'2022postEE'
p318
ag318
aS'merged'
p319
ag319
aS'sig'
p320
ag320
ag320
ag320
aS'bkg'
p321
ag18
aS'sm_in'
p322
aS'sm_out'
p323
ag322
ag323
aS'bkg_mass'
p324
aS'data_obs'
p325
aS'sm_in_2022preEE_hgg'
p326
aS'sm_out_2022preEE_hgg'
p327
aS'sm_in_2022postEE_hgg'
p328
aS'sm_out_2022postEE_hgg'
p329
ag324
ag325
aS'sm'
p330
aS'sm'
p331
aS'sm'
p332
aS'sm'
p333
aS'-'
p334
ag334
aS'best_resolution'
p335
ag335
ag335
ag335
ag335
ag335
aS'../input_output_2022preEE/ws_signal/output_SM_M125_13TeV_amcatnloFXFX_pythia8_sm_in.root'
p336
aS'../input_output_2022preEE/ws_signal/output_SM_M125_13TeV_amcatnloFXFX_pythia8_sm_out.root'
p337
aS'../input_output_2022postEE/ws_signal/output_SM_M125_13TeV_amcatnloFXFX_pythia8_sm_in.root'
p338
aS'../input_output_2022postEE/ws_signal/output_SM_M125_13TeV_amcatnloFXFX_pythia8_sm_out.root'
p339
ag334
ag334
aS'sm_in_125_13TeV_best_resolution'
p340
aS'sm_out_125_13TeV_best_resolution'
p341
aS'sm_in_125_13TeV_best_resolution'
p342
aS'sm_out_125_13TeV_best_resolution'
p343
ag334
ag334
aS'./Models/signal/CMS-HGG_sigfit_packaged_best_resolution.root'
p344
aS'./Models/signal/CMS-HGG_sigfit_packaged_best_resolution.root'
p345
aS'./Models/signal/CMS-HGG_sigfit_packaged_best_resolution.root'
p346
aS'./Models/signal/CMS-HGG_sigfit_packaged_best_resolution.root'
p347
aS'./Models/background/CMS-HGG_multipdf_best_resolution.root'
p348
ag348
aS'wsig_13TeV:hggpdfsmrel_sm_in_2022preEE_best_resolution_13TeV'
p349
aS'wsig_13TeV:hggpdfsmrel_sm_out_2022preEE_best_resolution_13TeV'
p350
aS'wsig_13TeV:hggpdfsmrel_sm_in_2022postEE_best_resolution_13TeV'
p351
aS'wsig_13TeV:hggpdfsmrel_sm_out_2022postEE_best_resolution_13TeV'
p352
aS'multipdf:CMS_hgg_best_resolution_13TeV_bkgshape'
p353
aS'multipdf:roohist_data_mass_best_resolution'
p354
aF5.903350160789111
aF0.02821667780820575
aF0.7748275122741636
aF0.0027794917581755512
ag334
ag334
aF0.001273740457715329
aF5.166425156848666e-06
aF0.000143042692564827
aF6.557770514217124e-07
ag334
ag334
aF5.903350160789111
aF0.02821667780820575
aF0.7748275122741636
aF0.0027794917581755512
ag334
ag334
aF5.884675207598198
aF0.028562205303305502
aF0.750276705662427
aF0.0024324702139046795
ag334
ag334
aF5.920838213234893
aF0.028094263022723203
aF0.8034936914856805
aF0.003053528927954914
ag334
ag334
aF5.915781105002102
aF0.028275646259613724
aF0.7764315999799463
aF0.0027851430696147657
ag334
ag334
aF5.890905840096429
aF0.028157709607170272
aF0.7732217967937715
aF0.0027738433054468746
ag334
ag334
aF5.91888803246132
aF0.028290013136445007
aF0.7763826097501446
aF0.0027850702650679105
ag334
ag334
aF5.887832727874729
aF0.028143437728098557
aF0.7732739737931693
aF0.0027739188437713082
ag334
ag334
aF5.97527387715089
aF0.02854365449291176
aF0.7837026307069083
aF0.0028113289324445097
ag334
ag334
aF5.83169642222937
aF0.027890519647657812
aF0.7660029340033394
aF0.002747835883565246
ag334
ag334
aF5.559808947650868
aF0.027283933695042437
aF0.3525921497271107
aF0.0015987727515397068
ag334
ag334
aF6.258526053533191
aF0.029729592720626623
aF1.4673987156506827
aF0.005278640295337601
ag334
ag334
aF6.735155861179595
aF0.03167547904538639
aF0.8976070388090641
aF0.0031852977478301387
ag334
ag334
aF6.735155861179595
aF0.03167547904538639
aF0.8976070388090641
aF0.0031852977478301387
ag334
ag334
aF6.950931620422106
aF0.03287168449608352
aF0.9162396254919697
aF0.003198983571254677
ag334
ag334
aF6.950931620422106
aF0.03287168449608352
aF0.9162396254919697
aF0.003198983571254677
ag334
ag334
aF5.724717071434337
aF0.027547599631644038
aF0.7611560804635141
aF0.002815182847300096
ag334
ag334
aF5.724717071434337
aF0.027547599631644038
aF0.7611560804635141
aF0.002815182847300096
ag334
ag334
aF6.067558616425462
aF0.02889251570469301
aF0.78818131600376
aF0.0027348375987879697
ag334
ag334
aF6.067558616425462
aF0.02889251570469301
aF0.78818131600376
aF0.0027348375987879697
ag334
ag334
aF5.042479741844759
aF0.024324134152888838
aF0.6594943460520046
aF0.0024004021450887716
ag334
ag334
aF5.042479741844759
aF0.024324134152888838
aF0.6594943460520046
aF0.0024004021450887716
ag334
ag334
aF5.174889637015456
aF0.02471369628074053
aF0.6692806825664223
aF0.0023428174064412206
ag334
ag334
aF5.174889637015456
aF0.02471369628074053
aF0.6692806825664223
aF0.0023428174064412206
ag334
ag334
aF6.09423427959404
aF0.029292741157108594
aF0.8027025208589665
aF0.002909267657702092
ag334
ag334
aF5.691784416920032
aF0.027025522995738266
aF0.7449989672794681
aF0.002634657354846637
ag334
ag334
aF6.09423427959404
aF0.029292741157108594
aF0.8027025208589665
aF0.002909267657702092
ag334
ag334
aF5.691784416920032
aF0.027025522995738266
aF0.7449989672794681
aF0.002634657354846637
ag334
ag334
aF5.983299494588573
aF0.028273055818386454
aF0.7866033939141923
aF0.0027383557000808184
ag334
ag334
aF5.803422363253265
aF0.028024694525784963
aF0.7604637946232493
aF0.00282418899491875
ag334
ag334
aF5.983299494588573
aF0.028273055818386454
aF0.7866033939141923
aF0.0027383557000808184
ag334
ag334
aF5.803422363253265
aF0.028024694525784963
aF0.7604637946232493
aF0.00282418899491875
ag334
ag334
aF5.9018019970551885
aF0.028000128615072884
aF0.7710700757598783
aF0.0030738029782716417
ag334
ag334
aF5.930706420398036
aF0.03047607971770335
aF0.7841134329078565
aF0.0024722810632354856
ag334
ag334
aF5.9018019970551885
aF0.028000128615072884
aF0.7710700757598783
aF0.0030738029782716417
ag334
ag334
aF5.930706420398036
aF0.03047607971770335
aF0.7841134329078565
aF0.0024722810632354856
ag334
ag334
aF5.909241189948021
aF0.028212728677978822
aF0.7754846246073683
aF0.0027627532943155166
ag334
ag334
aF5.909241189948021
aF0.028212728677978822
aF0.7754846246073683
aF0.0027627532943155166
ag334
ag334
aF5.89533201341183
aF0.02818481847235089
aF0.773757030222711
aF0.0027676219892766385
ag334
ag334
aF5.89533201341183
aF0.02818481847235089
aF0.773757030222711
aF0.0027676219892766385
ag334
ag334
aF5.91324792600246
aF0.028241147786983153
aF0.7755502679109486
aF0.0027943220943792996
ag334
ag334
aF5.91324792600246
aF0.028241147786983153
aF0.7755502679109486
aF0.0027943220943792996
ag334
ag334
aF5.916216069380606
aF0.02825873784402122
aF0.7762366812545308
aF0.002771245206549079
ag334
ag334
aF5.916216069380606
aF0.02825873784402122
aF0.7762366812545308
aF0.002771245206549079
ag334
ag334
aF5.913437910020861
aF0.02824483740612615
aF0.7761079558642567
aF0.0027982459161137356
ag334
ag334
aF5.913437910020861
aF0.02824483740612615
aF0.7761079558642567
aF0.0027982459161137356
ag334
ag334
aF5.9176382718003735
aF0.028235912575718475
aF0.7764846044189527
aF0.002768306972385044
ag334
ag334
aF5.9176382718003735
aF0.028235912575718475
aF0.7764846044189527
aF0.002768306972385044
ag334
ag334
aF5.935819258238071
aF0.02829669807782524
aF0.7780799276032827
aF0.002779782105974478
ag334
ag334
aF5.935819258238071
aF0.02829669807782524
aF0.7780799276032827
aF0.002779782105974478
ag334
ag334
aF5.9362245289934785
aF0.028280873923015933
aF0.7784239108293366
aF0.002778828605758801
ag334
ag334
aF5.9362245289934785
aF0.028280873923015933
aF0.7784239108293366
aF0.002778828605758801
ag334
ag334
aF5.900253785980764
aF0.02819111086552029
aF0.7744382338640625
aF0.0027679594990125457
ag334
ag334
aF5.900253785980764
aF0.02819111086552029
aF0.7744382338640625
aF0.0027679594990125457
ag334
ag334
aF5.903249674094269
aF0.028119819246305206
aF0.7748872291432395
aF0.0027572269212529656
ag334
ag334
aF5.903249674094269
aF0.028119819246305206
aF0.7748872291432395
aF0.0027572269212529656
ag334
ag334
aF5.872380400436821
aF0.028183041711377033
aF0.7714102661597406
aF0.0027949324753718655
ag334
ag334
aF5.872380400436821
aF0.028183041711377033
aF0.7714102661597406
aF0.0027949324753718655
ag334
ag334
aF5.917878681106613
aF0.02822730038629691
aF0.7765419943638796
aF0.0027575743847708836
ag334
ag334
aF5.917878681106613
aF0.02822730038629691
aF0.7765419943638796
aF0.0027575743847708836
ag334
ag334
aF5.894282416847473
aF0.028239175211484127
aF0.774035245587065
aF0.002776813023997121
ag334
ag334
aF5.894282416847473
aF0.028239175211484127
aF0.774035245587065
aF0.002776813023997121
ag334
ag334
aF5.897906121166116
aF0.028265458306924066
aF0.7744383723538101
aF0.002799056154950072
ag334
ag334
aF5.897906121166116
aF0.028265458306924066
aF0.7744383723538101
aF0.002799056154950072
ag334
ag334
aF5.904124805163685
aF0.028294668404768637
aF0.7748840763790029
aF0.002799851639467962
ag334
ag334
aF5.904124805163685
aF0.028294668404768637
aF0.7748840763790029
aF0.002799851639467962
ag334
ag334
aF5.886814575969896
aF0.028148923761397906
aF0.7735221857570507
aF0.002768510134423994
ag334
ag334
aF5.886814575969896
aF0.028148923761397906
aF0.7735221857570507
aF0.002768510134423994
ag334
ag334
aF5.886647738312506
aF0.028233983550183632
aF0.7730978234932773
aF0.002797928263688413
ag334
ag334
aF5.886647738312506
aF0.028233983550183632
aF0.7730978234932773
aF0.002797928263688413
ag334
ag334
aF5.923288718718906
aF0.028251014799687453
aF0.7766745275563488
aF0.002787364857980101
ag334
ag334
aF5.923288718718906
aF0.028251014799687453
aF0.7766745275563488
aF0.002787364857980101
ag334
ag334
aF5.915107401994739
aF0.02823645973926269
aF0.7759166119239742
aF0.00278394231193375
ag334
ag334
aF5.915107401994739
aF0.02823645973926269
aF0.7759166119239742
aF0.00278394231193375
ag334
ag334
aF5.898505319096397
aF0.028288047792787426
aF0.7742168770726586
aF0.002807050236119431
ag334
ag334
aF5.898505319096397
aF0.028288047792787426
aF0.7742168770726586
aF0.002807050236119431
ag334
ag334
aF5.914413608376367
aF0.02821503124624667
aF0.7758198170922393
aF0.0027673323815983163
ag334
ag334
aF5.914413608376367
aF0.02821503124624667
aF0.7758198170922393
aF0.0027673323815983163
ag334
ag334
aF5.900302630464809
aF0.02820096286643098
aF0.7745581392778557
aF0.0027656046631953585
ag334
ag334
aF5.900302630464809
aF0.02820096286643098
aF0.7745581392778557
aF0.0027656046631953585
ag334
ag334
aF5.901176419147257
aF0.02820025870171778
aF0.7747651880070665
aF0.0027753917883343283
ag334
ag334
aF5.901176419147257
aF0.02820025870171778
aF0.7747651880070665
aF0.0027753917883343283
ag334
ag334
aF5.9042899316685755
aF0.028183474611219023
aF0.7747980060017969
aF0.00276928393604893
ag334
ag334
aF5.9042899316685755
aF0.028183474611219023
aF0.7747980060017969
aF0.00276928393604893
ag334
ag334
aF5.902685989888108
aF0.028302788517022788
aF0.7741888984606478
aF0.0028214374955427
ag334
ag334
aF5.902685989888108
aF0.028302788517022788
aF0.7741888984606478
aF0.0028214374955427
ag334
ag334
aF5.9009303466594885
aF0.02819633927139186
aF0.7746411339381074
aF0.0027648339428388443
ag334
ag334
aF5.9009303466594885
aF0.02819633927139186
aF0.7746411339381074
aF0.0027648339428388443
ag334
ag334
aF5.8971881247215485
aF0.028149504968172905
aF0.7740987651552864
aF0.002752576774079833
ag334
ag334
aF5.8971881247215485
aF0.028149504968172905
aF0.7740987651552864
aF0.002752576774079833
ag334
ag334
aF5.906632432753049
aF0.028242134681382026
aF0.7755138597559421
aF0.002793035179865198
ag334
ag334
aF5.906632432753049
aF0.028242134681382026
aF0.7755138597559421
aF0.002793035179865198
ag334
ag334
aF5.896642259685962
aF0.028169415509169467
aF0.7738425376054268
aF0.0027829240268292207
ag334
ag334
aF5.896642259685962
aF0.028169415509169467
aF0.7738425376054268
aF0.0027829240268292207
ag334
ag334
aF5.900692872366861
aF0.028341870862229213
aF0.7741734237959483
aF0.0028045719052945768
ag334
ag334
aF5.900692872366861
aF0.028341870862229213
aF0.7741734237959483
aF0.0028045719052945768
ag334
ag334
aF5.896001560206626
aF0.028158577815745506
aF0.7738210180203311
aF0.0027777784858464345
ag334
ag334
aF5.896001560206626
aF0.028158577815745506
aF0.7738210180203311
aF0.0027777784858464345
ag334
ag334
aF5.903953720032988
aF0.028291164099896144
aF0.7749667387263309
aF0.0028249306212428265
ag334
ag334
aF5.903953720032988
aF0.028291164099896144
aF0.7749667387263309
aF0.0028249306212428265
ag334
ag334
aF5.899462733219558
aF0.028387650064727026
aF0.7740726243077503
aF0.0028497179262851613
ag334
ag334
aF5.899462733219558
aF0.028387650064727026
aF0.7740726243077503
aF0.0028497179262851613
ag334
ag334
aF5.900546741872454
aF0.028171954642790934
aF0.774547419520838
aF0.0027620401230526166
ag334
ag334
aF5.900546741872454
aF0.028171954642790934
aF0.774547419520838
aF0.0027620401230526166
ag334
ag334
aF5.902642919468998
aF0.028227424151357927
aF0.7747038386926457
aF0.0027734162109634536
ag334
ag334
aF5.902642919468998
aF0.028227424151357927
aF0.7747038386926457
aF0.0027734162109634536
ag334
ag334
aF5.908783685350492
aF0.028212615346754018
aF0.7754508406703446
aF0.0027713268862041445
ag334
ag334
aF5.908783685350492
aF0.028212615346754018
aF0.7754508406703446
aF0.0027713268862041445
ag334
ag334
aF5.903241574683054
aF0.02823794981189768
aF0.7746851056609216
aF0.0027941992871998765
ag334
ag334
aF5.903241574683054
aF0.02823794981189768
aF0.7746851056609216
aF0.0027941992871998765
ag334
ag334
aF5.904308732374996
aF0.028280410269688576
aF0.7749593469098196
aF0.0027988429135928855
ag334
ag334
aF5.904308732374996
aF0.028280410269688576
aF0.7749593469098196
aF0.0027988429135928855
ag334
ag334
aF5.901616375771421
aF0.028185392840620604
aF0.7747963010779474
aF0.00276708761494029
ag334
ag334
aF5.901616375771421
aF0.028185392840620604
aF0.7747963010779474
aF0.00276708761494029
ag334
ag334
aF5.9019310921214005
aF0.028191730986168003
aF0.7744400557650256
aF0.0027832425995023345
ag334
ag334
aF5.9019310921214005
aF0.028191730986168003
aF0.7744400557650256
aF0.0027832425995023345
ag334
ag334
aF5.905920300386943
aF0.028259521190205552
aF0.7750857229395094
aF0.0027987244714212083
ag334
ag334
aF5.905920300386943
aF0.028259521190205552
aF0.7750857229395094
aF0.0027987244714212083
ag334
ag334
aF5.902726520158162
aF0.02820019100339457
aF0.7745318484955366
aF0.0027802785152984087
ag334
ag334
aF5.902726520158162
aF0.02820019100339457
aF0.7745318484955366
aF0.0027802785152984087
ag334
ag334
aF5.900375230153325
aF0.028239317557836402
aF0.774152872138078
aF0.0027789051669344367
ag334
ag334
aF5.900375230153325
aF0.028239317557836402
aF0.774152872138078
aF0.0027789051669344367
ag334
ag334
aF5.903552786638479
aF0.028194412252585937
aF0.7744629096148344
aF0.0027637337523269256
ag334
ag334
aF5.903552786638479
aF0.028194412252585937
aF0.7744629096148344
aF0.0027637337523269256
ag334
ag334
aF5.9043624888346455
aF0.028201286874074603
aF0.7745566206962455
aF0.0027820406734758627
ag334
ag334
aF5.9043624888346455
aF0.028201286874074603
aF0.7745566206962455
aF0.0027820406734758627
ag334
ag334
aF5.903336886720314
aF0.02824125632997967
aF0.7744750262153037
aF0.002798492681594994
ag334
ag334
aF5.903336886720314
aF0.02824125632997967
aF0.7744750262153037
aF0.002798492681594994
ag334
ag334
aF5.90194474167011
aF0.028233342269560507
aF0.7743511962944886
aF0.0027888667528831843
ag334
ag334
aF5.90194474167011
aF0.028233342269560507
aF0.7743511962944886
aF0.0027888667528831843
ag334
ag334
aF5.902383830343187
aF0.02824498460663864
aF0.7747392151033751
aF0.0027745533953897243
ag334
ag334
aF5.902383830343187
aF0.02824498460663864
aF0.7747392151033751
aF0.0027745533953897243
ag334
ag334
aF5.900553462840577
aF0.028196499947700304
aF0.7744940500830674
aF0.0027844949137195234
ag334
ag334
aF5.900553462840577
aF0.028196499947700304
aF0.7744940500830674
aF0.0027844949137195234
ag334
ag334
aF5.902081558112029
aF0.028239894202585814
aF0.7746346763409966
aF0.0027872493883592353
ag334
ag334
aF5.902081558112029
aF0.028239894202585814
aF0.7746346763409966
aF0.0027872493883592353
ag334
ag334
aF5.902829794774114
aF0.02820575221068438
aF0.7749186088913321
aF0.0027666344098001405
ag334
ag334
aF5.902829794774114
aF0.02820575221068438
aF0.7749186088913321
aF0.0027666344098001405
ag334
ag334
aF5.905045859274614
aF0.028254479673980138
aF0.7751228438786625
aF0.0027957304627584875
ag334
ag334
aF5.905045859274614
aF0.028254479673980138
aF0.7751228438786625
aF0.0027957304627584875
ag334
ag334
aF5.902521922003032
aF0.028197443544297436
aF0.7750539689127489
aF0.0027661407710654054
ag334
ag334
aF5.902521922003032
aF0.028197443544297436
aF0.7750539689127489
aF0.0027661407710654054
ag334
ag334
aF5.903684112319786
aF0.02819855472202186
aF0.7747099836647156
aF0.0027748954607419774
ag334
ag334
aF5.903684112319786
aF0.02819855472202186
aF0.7747099836647156
aF0.0027748954607419774
ag334
ag334
aF5.905100850954811
aF0.028209442977998402
aF0.7751124096597619
aF0.002770536547185007
ag334
ag334
aF5.905100850954811
aF0.028209442977998402
aF0.7751124096597619
aF0.002770536547185007
ag334
ag334
aF5.903528410887443
aF0.028212906366150335
aF0.7748085060679382
aF0.0027741166290223126
ag334
ag334
aF5.903528410887443
aF0.028212906366150335
aF0.7748085060679382
aF0.0027741166290223126
ag334
ag334
aF5.904355944186463
aF0.02820690027161724
aF0.7750298867883461
aF0.002782795920825496
ag334
ag334
aF5.904355944186463
aF0.02820690027161724
aF0.7750298867883461
aF0.002782795920825496
ag334
ag334
aF5.903053386143809
aF0.028208144701546874
aF0.7747985545767591
aF0.0027825158861218236
ag334
ag334
aF5.903053386143809
aF0.028208144701546874
aF0.7747985545767591
aF0.0027825158861218236
ag334
ag334
aF5.904714883781302
aF0.028238584718119766
aF0.7750635864723149
aF0.0027850929358034775
ag334
ag334
aF5.904714883781302
aF0.028238584718119766
aF0.7750635864723149
aF0.0027850929358034775
ag334
ag334
aF5.9030784586305005
aF0.028216727786378567
aF0.7749049913135013
aF0.0027765989468152125
ag334
ag334
aF5.9030784586305005
aF0.028216727786378567
aF0.7749049913135013
aF0.0027765989468152125
ag334
ag334
aF5.903499568181588
aF0.028215418400574194
aF0.7746608184742877
aF0.002794306164926958
ag334
ag334
aF5.903499568181588
aF0.028215418400574194
aF0.7746608184742877
aF0.002794306164926958
ag334
ag334
aF5.906214835754526
aF0.028227080890420895
aF0.7751247037695358
aF0.002775676366544588
ag334
ag334
aF5.906214835754526
aF0.028227080890420895
aF0.7751247037695358
aF0.002775676366544588
ag334
ag334
aF5.903372621901258
aF0.028202965853613062
aF0.77461420000416
aF0.0027746417945048443
ag334
ag334
aF5.903372621901258
aF0.028202965853613062
aF0.77461420000416
aF0.0027746417945048443
ag334
ag334
aF5.905345523887323
aF0.028247359589043425
aF0.7748904441491741
aF0.002783919174424648
ag334
ag334
aF5.905345523887323
aF0.028247359589043425
aF0.7748904441491741
aF0.002783919174424648
ag334
ag334
aF5.905230127590054
aF0.028225976485188584
aF0.7750851358663273
aF0.0027802732331655903
ag334
ag334
aF5.905230127590054
aF0.028225976485188584
aF0.7750851358663273
aF0.0027802732331655903
ag334
ag334
aF5.905068974108219
aF0.02821248665041673
aF0.7749153106166378
aF0.002777534746487776
ag334
ag334
aF5.905068974108219
aF0.02821248665041673
aF0.7749153106166378
aF0.002777534746487776
ag334
ag334
aF5.904404845759658
aF0.028223563833964318
aF0.7751181540379822
aF0.0027766619399253287
ag334
ag334
aF5.904404845759658
aF0.028223563833964318
aF0.7751181540379822
aF0.0027766619399253287
ag334
ag334
aF5.904265231887718
aF0.028227240157804676
aF0.7749649372446895
aF0.0027786057127450366
ag334
ag334
aF5.904265231887718
aF0.028227240157804676
aF0.7749649372446895
aF0.0027786057127450366
ag334
ag334
aF5.904135609883334
aF0.028221965972993094
aF0.7748904680305365
aF0.002772326838761552
ag334
ag334
aF5.904135609883334
aF0.028221965972993094
aF0.7748904680305365
aF0.002772326838761552
ag334
ag334
aF5.903275358112389
aF0.028213613832251773
aF0.774741583361844
aF0.0027795388793428856
ag334
ag334
aF5.903275358112389
aF0.028213613832251773
aF0.774741583361844
aF0.0027795388793428856
ag334
ag334
aF5.903924276177616
aF0.028221618376519406
aF0.7748963635185158
aF0.0027866263971459693
ag334
ag334
aF5.903924276177616
aF0.028221618376519406
aF0.7748963635185158
aF0.0027866263971459693
ag334
ag334
aF5.903121791576503
aF0.028213798673569625
aF0.7749015658680336
aF0.0027694998986814955
ag334
ag334
aF5.903121791576503
aF0.028213798673569625
aF0.7749015658680336
aF0.0027694998986814955
ag334
ag334
aF5.904217693173632
aF0.0282214478370919
aF0.7750952131446879
aF0.0027766449292538943
ag334
ag334
aF5.904217693173632
aF0.0282214478370919
aF0.7750952131446879
aF0.0027766449292538943
ag334
ag334
aF5.9033680041359675
aF0.028207999566910166
aF0.7746838421575053
aF0.002777523447523936
ag334
ag334
aF5.9033680041359675
aF0.028207999566910166
aF0.7746838421575053
aF0.002777523447523936
ag334
ag334
aF5.902250779297988
aF0.028224843044231496
aF0.7746720624693372
aF0.0027807522949020473
ag334
ag334
aF5.902250779297988
aF0.028224843044231496
aF0.7746720624693372
aF0.0027807522949020473
ag334
ag334
aF5.902966174354186
aF0.02821625719628272
aF0.7747406949417511
aF0.0027855330398233583
ag334
ag334
aF5.902966174354186
aF0.02821625719628272
aF0.7747406949417511
aF0.0027855330398233583
ag334
ag334
aF5.906511485598092
aF0.028230110877670075
aF0.7751408052781776
aF0.002781256992277356
ag334
ag334
aF5.906511485598092
aF0.028230110877670075
aF0.7751408052781776
aF0.002781256992277356
ag334
ag334
aF5.903246919138935
aF0.02821569084476246
aF0.7748297274625827
aF0.0027845777962299183
ag334
ag334
aF5.903246919138935
aF0.02821569084476246
aF0.7748297274625827
aF0.0027845777962299183
ag334
ag334
aF5.902235164658848
aF0.028205987463277123
aF0.7747214003082774
aF0.002773845523258263
ag334
ag334
aF5.902235164658848
aF0.028205987463277123
aF0.7747214003082774
aF0.002773845523258263
ag334
ag334
aF5.903693649119814
aF0.028214231722422316
aF0.774865266214283
aF0.002784270006830014
ag334
ag334
aF5.903693649119814
aF0.028214231722422316
aF0.774865266214283
aF0.002784270006830014
ag334
ag334
aF5.902404410503727
aF0.028221761769878142
aF0.7747098824638347
aF0.0027847725039647476
ag334
ag334
aF5.902404410503727
aF0.028221761769878142
aF0.7747098824638347
aF0.0027847725039647476
ag334
ag334
aF5.904126096440055
aF0.028223315768153807
aF0.7748314860674825
aF0.00278169042056366
ag334
ag334
aF5.904126096440055
aF0.028223315768153807
aF0.7748314860674825
aF0.00278169042056366
ag334
ag334
aF5.903903431087971
aF0.028209228880229417
aF0.7748153164639614
aF0.0027880621692843743
ag334
ag334
aF5.903903431087971
aF0.028209228880229417
aF0.7748153164639614
aF0.0027880621692843743
ag334
ag334
aF5.9043260235255515
aF0.028224447773736026
aF0.7750382048717795
aF0.002778650821852022
ag334
ag334
aF5.9043260235255515
aF0.028224447773736026
aF0.7750382048717795
aF0.002778650821852022
ag334
ag334
aF5.903074176132357
aF0.028215157671819584
aF0.7747489012466892
aF0.002780952491426165
ag334
ag334
aF5.903074176132357
aF0.028215157671819584
aF0.7747489012466892
aF0.002780952491426165
ag334
ag334
aF5.902494778347912
aF0.028211841178146898
aF0.7746792053683632
aF0.0027762514600108454
ag334
ag334
aF5.902494778347912
aF0.028211841178146898
aF0.7746792053683632
aF0.0027762514600108454
ag334
ag334
aF5.903993154213434
aF0.028234074210599338
aF0.77496646969824
aF0.002786137589850302
ag334
ag334
aF5.903993154213434
aF0.028234074210599338
aF0.77496646969824
aF0.002786137589850302
ag334
ag334
aF5.90363339156825
aF0.028213662440889808
aF0.774925620511744
aF0.0027756515561307787
ag334
ag334
aF5.90363339156825
aF0.028213662440889808
aF0.774925620511744
aF0.0027756515561307787
ag334
ag334
aF5.9035050275387455
aF0.02821781441651883
aF0.7748297012848705
aF0.0027770174809763856
ag334
ag334
aF5.9035050275387455
aF0.02821781441651883
aF0.7748297012848705
aF0.0027770174809763856
ag334
ag334
aF5.903790420832806
aF0.028225799911731735
aF0.7748333951185864
aF0.0027810915114901374
ag334
ag334
aF5.903790420832806
aF0.028225799911731735
aF0.7748333951185864
aF0.0027810915114901374
ag334
ag334
aF5.903732691217371
aF0.028221728241282083
aF0.7749003022682824
aF0.0027807677644357746
ag334
ag334
aF5.903732691217371
aF0.028221728241282083
aF0.7749003022682824
aF0.0027807677644357746
ag334
ag334
aF5.903790654069102
aF0.02822184483352582
aF0.7748810172848893
aF0.002781383845938033
ag334
ag334
aF5.903790654069102
aF0.02822184483352582
aF0.7748810172848893
aF0.002781383845938033
ag334
ag334
aF5.902912028405775
aF0.028218948845128742
aF0.7746235609493054
aF0.002775773906003366
ag334
ag334
aF5.902912028405775
aF0.028218948845128742
aF0.7746235609493054
aF0.002775773906003366
ag334
ag334
aF5.902444373115882
aF0.028206343096899882
aF0.7747117261133745
aF0.0027769790898339603
ag334
ag334
aF5.902444373115882
aF0.028206343096899882
aF0.7747117261133745
aF0.0027769790898339603
ag334
ag334
aF5.903523267400227
aF0.02821356279547426
aF0.7747836940890636
aF0.0027819145721852405
ag334
ag334
aF5.903523267400227
aF0.02821356279547426
aF0.7747836940890636
aF0.0027819145721852405
ag334
ag334
aF5.902948895326725
aF0.02821199742670309
aF0.7746725344476459
aF0.0027786390782665597
ag334
ag334
aF5.902948895326725
aF0.02821199742670309
aF0.7746725344476459
aF0.0027786390782665597
ag334
ag334
aF5.903312433690282
aF0.028215147650562163
aF0.7749090077614413
aF0.0027787268890779476
ag334
ag334
aF5.903312433690282
aF0.028215147650562163
aF0.7749090077614413
aF0.0027787268890779476
ag334
ag334
aF5.90347998165793
aF0.028223338048538674
aF0.7748394484217277
aF0.0027821918963184954
ag334
ag334
aF5.90347998165793
aF0.028223338048538674
aF0.7748394484217277
aF0.0027821918963184954
ag334
ag334
aF5.903847136291494
aF0.02822028884311299
aF0.7749688487608379
aF0.002781797891580091
ag334
ag334
aF5.903847136291494
aF0.02822028884311299
aF0.7749688487608379
aF0.002781797891580091
ag334
ag334
aF5.903293808020966
aF0.028216395982628397
aF0.7748206874046145
aF0.0027794618483306726
ag334
ag334
aF5.903293808020966
aF0.028216395982628397
aF0.7748206874046145
aF0.0027794618483306726
ag334
ag334
atp355
ba(lp356
g15
(g16
(dp357
g18
g19
(g20
(I0
tp358
g22
tp359
Rp360
(I1
(I1
tp361
g29
I00
(lp362
g43
atp363
bsg282
Nstp364
Rp365
ag15
(g16
(dp366
g18
g19
(g20
(I0
tp367
g22
tp368
Rp369
(I1
(I247
tp370
g29
I00
(lp371
g33
ag34
ag35
ag36
ag37
ag38
ag39
ag40
ag41
ag42
ag44
ag45
ag46
ag47
ag48
ag49
ag50
ag51
ag52
ag53
ag54
ag55
ag56
ag57
ag58
ag59
ag60
ag61
ag62
ag63
ag64
ag65
ag66
ag67
ag68
ag69
ag70
ag71
ag72
ag73
ag74
ag75
ag76
ag77
ag78
ag79
ag80
ag81
ag82
ag83
ag84
ag85
ag86
ag87
ag88
ag89
ag90
ag91
ag92
ag93
ag94
ag95
ag96
ag97
ag98
ag99
ag100
ag101
ag102
ag103
ag104
ag105
ag106
ag107
ag108
ag109
ag110
ag111
ag112
ag113
ag114
ag115
ag116
ag117
ag118
ag119
ag120
ag121
ag122
ag123
ag124
ag125
ag126
ag127
ag128
ag129
ag130
ag131
ag132
ag133
ag134
ag135
ag136
ag137
ag138
ag139
ag140
ag141
ag142
ag143
ag144
ag145
ag146
ag147
ag148
ag149
ag150
ag151
ag152
ag153
ag154
ag155
ag156
ag157
ag158
ag159
ag160
ag161
ag162
ag163
ag164
ag165
ag166
ag167
ag168
ag169
ag170
ag171
ag172
ag173
ag174
ag175
ag176
ag177
ag178
ag179
ag180
ag181
ag182
ag183
ag184
ag185
ag186
ag187
ag188
ag189
ag190
ag191
ag192
ag193
ag194
ag195
ag196
ag197
ag198
ag199
ag200
ag201
ag202
ag203
ag204
ag205
ag206
ag207
ag208
ag209
ag210
ag211
ag212
ag213
ag214
ag215
ag216
ag217
ag218
ag219
ag220
ag221
ag222
ag223
ag224
ag225
ag226
ag227
ag228
ag229
ag230
ag231
ag232
ag233
ag234
ag235
ag236
ag237
ag238
ag239
ag240
ag241
ag242
ag243
ag244
ag245
ag246
ag247
ag248
ag249
ag250
ag251
ag252
ag253
ag254
ag255
ag256
ag257
ag258
ag259
ag260
ag261
ag262
ag263
ag264
ag265
ag266
ag267
ag268
ag269
ag270
ag271
ag272
ag273
ag274
ag275
ag276
ag277
ag278
ag279
ag280
atp372
bsg282
Nstp373
Rp374
a(dp375
S'0.14.1'
p376
(dp377
S'axes'
p378
g14
sS'blocks'
p379
(lp380
(dp381
S'mgr_locs'
p382
c__builtin__
slice
p383
(I10
I11
I1
tp384
Rp385
sS'values'
p386
g303
sa(dp387
g382
g19
(g20
(I0
tp388
g22
tp389
Rp390
(I1
(I247
tp391
g293
I00
S'\x00\x00\x00\x00\x00\x00\x00\x00\x01\x00\x00\x00\x00\x00\x00\x00\x02\x00\x00\x00\x00\x00\x00\x00\x03\x00\x00\x00\x00\x00\x00\x00\x04\x00\x00\x00\x00\x00\x00\x00\x05\x00\x00\x00\x00\x00\x00\x00\x06\x00\x00\x00\x00\x00\x00\x00\x07\x00\x00\x00\x00\x00\x00\x00\x08\x00\x00\x00\x00\x00\x00\x00\t\x00\x00\x00\x00\x00\x00\x00\x0b\x00\x00\x00\x00\x00\x00\x00\x0c\x00\x00\x00\x00\x00\x00\x00\r\x00\x00\x00\x00\x00\x00\x00\x0e\x00\x00\x00\x00\x00\x00\x00\x0f\x00\x00\x00\x00\x00\x00\x00\x10\x00\x00\x00\x00\x00\x00\x00\x11\x00\x00\x00\x00\x00\x00\x00\x12\x00\x00\x00\x00\x00\x00\x00\x13\x00\x00\x00\x00\x00\x00\x00\x14\x00\x00\x00\x00\x00\x00\x00\x15\x00\x00\x00\x00\x00\x00\x00\x16\x00\x00\x00\x00\x00\x00\x00\x17\x00\x00\x00\x00\x00\x00\x00\x18\x00\x00\x00\x00\x00\x00\x00\x19\x00\x00\x00\x00\x00\x00\x00\x1a\x00\x00\x00\x00\x00\x00\x00\x1b\x00\x00\x00\x00\x00\x00\x00\x1c\x00\x00\x00\x00\x00\x00\x00\x1d\x00\x00\x00\x00\x00\x00\x00\x1e\x00\x00\x00\x00\x00\x00\x00\x1f\x00\x00\x00\x00\x00\x00\x00 \x00\x00\x00\x00\x00\x00\x00!\x00\x00\x00\x00\x00\x00\x00"\x00\x00\x00\x00\x00\x00\x00#\x00\x00\x00\x00\x00\x00\x00$\x00\x00\x00\x00\x00\x00\x00%\x00\x00\x00\x00\x00\x00\x00&\x00\x00\x00\x00\x00\x00\x00\'\x00\x00\x00\x00\x00\x00\x00(\x00\x00\x00\x00\x00\x00\x00)\x00\x00\x00\x00\x00\x00\x00*\x00\x00\x00\x00\x00\x00\x00+\x00\x00\x00\x00\x00\x00\x00,\x00\x00\x00\x00\x00\x00\x00-\x00\x00\x00\x00\x00\x00\x00.\x00\x00\x00\x00\x00\x00\x00/\x00\x00\x00\x00\x00\x00\x000\x00\x00\x00\x00\x00\x00\x001\x00\x00\x00\x00\x00\x00\x002\x00\x00\x00\x00\x00\x00\x003\x00\x00\x00\x00\x00\x00\x004\x00\x00\x00\x00\x00\x00\x005\x00\x00\x00\x00\x00\x00\x006\x00\x00\x00\x00\x00\x00\x007\x00\x00\x00\x00\x00\x00\x008\x00\x00\x00\x00\x00\x00\x009\x00\x00\x00\x00\x00\x00\x00:\x00\x00\x00\x00\x00\x00\x00;\x00\x00\x00\x00\x00\x00\x00<\x00\x00\x00\x00\x00\x00\x00=\x00\x00\x00\x00\x00\x00\x00>\x00\x00\x00\x00\x00\x00\x00?\x00\x00\x00\x00\x00\x00\x00@\x00\x00\x00\x00\x00\x00\x00A\x00\x00\x00\x00\x00\x00\x00B\x00\x00\x00\x00\x00\x00\x00C\x00\x00\x00\x00\x00\x00\x00D\x00\x00\x00\x00\x00\x00\x00E\x00\x00\x00\x00\x00\x00\x00F\x00\x00\x00\x00\x00\x00\x00G\x00\x00\x00\x00\x00\x00\x00H\x00\x00\x00\x00\x00\x00\x00I\x00\x00\x00\x00\x00\x00\x00J\x00\x00\x00\x00\x00\x00\x00K\x00\x00\x00\x00\x00\x00\x00L\x00\x00\x00\x00\x00\x00\x00M\x00\x00\x00\x00\x00\x00\x00N\x00\x00\x00\x00\x00\x00\x00O\x00\x00\x00\x00\x00\x00\x00P\x00\x00\x00\x00\x00\x00\x00Q\x00\x00\x00\x00\x00\x00\x00R\x00\x00\x00\x00\x00\x00\x00S\x00\x00\x00\x00\x00\x00\x00T\x00\x00\x00\x00\x00\x00\x00U\x00\x00\x00\x00\x00\x00\x00V\x00\x00\x00\x00\x00\x00\x00W\x00\x00\x00\x00\x00\x00\x00X\x00\x00\x00\x00\x00\x00\x00Y\x00\x00\x00\x00\x00\x00\x00Z\x00\x00\x00\x00\x00\x00\x00[\x00\x00\x00\x00\x00\x00\x00\\\x00\x00\x00\x00\x00\x00\x00]\x00\x00\x00\x00\x00\x00\x00^\x00\x00\x00\x00\x00\x00\x00_\x00\x00\x00\x00\x00\x00\x00`\x00\x00\x00\x00\x00\x00\x00a\x00\x00\x00\x00\x00\x00\x00b\x00\x00\x00\x00\x00\x00\x00c\x00\x00\x00\x00\x00\x00\x00d\x00\x00\x00\x00\x00\x00\x00e\x00\x00\x00\x00\x00\x00\x00f\x00\x00\x00\x00\x00\x00\x00g\x00\x00\x00\x00\x00\x00\x00h\x00\x00\x00\x00\x00\x00\x00i\x00\x00\x00\x00\x00\x00\x00j\x00\x00\x00\x00\x00\x00\x00k\x00\x00\x00\x00\x00\x00\x00l\x00\x00\x00\x00\x00\x00\x00m\x00\x00\x00\x00\x00\x00\x00n\x00\x00\x00\x00\x00\x00\x00o\x00\x00\x00\x00\x00\x00\x00p\x00\x00\x00\x00\x00\x00\x00q\x00\x00\x00\x00\x00\x00\x00r\x00\x00\x00\x00\x00\x00\x00s\x00\x00\x00\x00\x00\x00\x00t\x00\x00\x00\x00\x00\x00\x00u\x00\x00\x00\x00\x00\x00\x00v\x00\x00\x00\x00\x00\x00\x00w\x00\x00\x00\x00\x00\x00\x00x\x00\x00\x00\x00\x00\x00\x00y\x00\x00\x00\x00\x00\x00\x00z\x00\x00\x00\x00\x00\x00\x00{\x00\x00\x00\x00\x00\x00\x00|\x00\x00\x00\x00\x00\x00\x00}\x00\x00\x00\x00\x00\x00\x00~\x00\x00\x00\x00\x00\x00\x00\x7f\x00\x00\x00\x00\x00\x00\x00\x80\x00\x00\x00\x00\x00\x00\x00\x81\x00\x00\x00\x00\x00\x00\x00\x82\x00\x00\x00\x00\x00\x00\x00\x83\x00\x00\x00\x00\x00\x00\x00\x84\x00\x00\x00\x00\x00\x00\x00\x85\x00\x00\x00\x00\x00\x00\x00\x86\x00\x00\x00\x00\x00\x00\x00\x87\x00\x00\x00\x00\x00\x00\x00\x88\x00\x00\x00\x00\x00\x00\x00\x89\x00\x00\x00\x00\x00\x00\x00\x8a\x00\x00\x00\x00\x00\x00\x00\x8b\x00\x00\x00\x00\x00\x00\x00\x8c\x00\x00\x00\x00\x00\x00\x00\x8d\x00\x00\x00\x00\x00\x00\x00\x8e\x00\x00\x00\x00\x00\x00\x00\x8f\x00\x00\x00\x00\x00\x00\x00\x90\x00\x00\x00\x00\x00\x00\x00\x91\x00\x00\x00\x00\x00\x00\x00\x92\x00\x00\x00\x00\x00\x00\x00\x93\x00\x00\x00\x00\x00\x00\x00\x94\x00\x00\x00\x00\x00\x00\x00\x95\x00\x00\x00\x00\x00\x00\x00\x96\x00\x00\x00\x00\x00\x00\x00\x97\x00\x00\x00\x00\x00\x00\x00\x98\x00\x00\x00\x00\x00\x00\x00\x99\x00\x00\x00\x00\x00\x00\x00\x9a\x00\x00\x00\x00\x00\x00\x00\x9b\x00\x00\x00\x00\x00\x00\x00\x9c\x00\x00\x00\x00\x00\x00\x00\x9d\x00\x00\x00\x00\x00\x00\x00\x9e\x00\x00\x00\x00\x00\x00\x00\x9f\x00\x00\x00\x00\x00\x00\x00\xa0\x00\x00\x00\x00\x00\x00\x00\xa1\x00\x00\x00\x00\x00\x00\x00\xa2\x00\x00\x00\x00\x00\x00\x00\xa3\x00\x00\x00\x00\x00\x00\x00\xa4\x00\x00\x00\x00\x00\x00\x00\xa5\x00\x00\x00\x00\x00\x00\x00\xa6\x00\x00\x00\x00\x00\x00\x00\xa7\x00\x00\x00\x00\x00\x00\x00\xa8\x00\x00\x00\x00\x00\x00\x00\xa9\x00\x00\x00\x00\x00\x00\x00\xaa\x00\x00\x00\x00\x00\x00\x00\xab\x00\x00\x00\x00\x00\x00\x00\xac\x00\x00\x00\x00\x00\x00\x00\xad\x00\x00\x00\x00\x00\x00\x00\xae\x00\x00\x00\x00\x00\x00\x00\xaf\x00\x00\x00\x00\x00\x00\x00\xb0\x00\x00\x00\x00\x00\x00\x00\xb1\x00\x00\x00\x00\x00\x00\x00\xb2\x00\x00\x00\x00\x00\x00\x00\xb3\x00\x00\x00\x00\x00\x00\x00\xb4\x00\x00\x00\x00\x00\x00\x00\xb5\x00\x00\x00\x00\x00\x00\x00\xb6\x00\x00\x00\x00\x00\x00\x00\xb7\x00\x00\x00\x00\x00\x00\x00\xb8\x00\x00\x00\x00\x00\x00\x00\xb9\x00\x00\x00\x00\x00\x00\x00\xba\x00\x00\x00\x00\x00\x00\x00\xbb\x00\x00\x00\x00\x00\x00\x00\xbc\x00\x00\x00\x00\x00\x00\x00\xbd\x00\x00\x00\x00\x00\x00\x00\xbe\x00\x00\x00\x00\x00\x00\x00\xbf\x00\x00\x00\x00\x00\x00\x00\xc0\x00\x00\x00\x00\x00\x00\x00\xc1\x00\x00\x00\x00\x00\x00\x00\xc2\x00\x00\x00\x00\x00\x00\x00\xc3\x00\x00\x00\x00\x00\x00\x00\xc4\x00\x00\x00\x00\x00\x00\x00\xc5\x00\x00\x00\x00\x00\x00\x00\xc6\x00\x00\x00\x00\x00\x00\x00\xc7\x00\x00\x00\x00\x00\x00\x00\xc8\x00\x00\x00\x00\x00\x00\x00\xc9\x00\x00\x00\x00\x00\x00\x00\xca\x00\x00\x00\x00\x00\x00\x00\xcb\x00\x00\x00\x00\x00\x00\x00\xcc\x00\x00\x00\x00\x00\x00\x00\xcd\x00\x00\x00\x00\x00\x00\x00\xce\x00\x00\x00\x00\x00\x00\x00\xcf\x00\x00\x00\x00\x00\x00\x00\xd0\x00\x00\x00\x00\x00\x00\x00\xd1\x00\x00\x00\x00\x00\x00\x00\xd2\x00\x00\x00\x00\x00\x00\x00\xd3\x00\x00\x00\x00\x00\x00\x00\xd4\x00\x00\x00\x00\x00\x00\x00\xd5\x00\x00\x00\x00\x00\x00\x00\xd6\x00\x00\x00\x00\x00\x00\x00\xd7\x00\x00\x00\x00\x00\x00\x00\xd8\x00\x00\x00\x00\x00\x00\x00\xd9\x00\x00\x00\x00\x00\x00\x00\xda\x00\x00\x00\x00\x00\x00\x00\xdb\x00\x00\x00\x00\x00\x00\x00\xdc\x00\x00\x00\x00\x00\x00\x00\xdd\x00\x00\x00\x00\x00\x00\x00\xde\x00\x00\x00\x00\x00\x00\x00\xdf\x00\x00\x00\x00\x00\x00\x00\xe0\x00\x00\x00\x00\x00\x00\x00\xe1\x00\x00\x00\x00\x00\x00\x00\xe2\x00\x00\x00\x00\x00\x00\x00\xe3\x00\x00\x00\x00\x00\x00\x00\xe4\x00\x00\x00\x00\x00\x00\x00\xe5\x00\x00\x00\x00\x00\x00\x00\xe6\x00\x00\x00\x00\x00\x00\x00\xe7\x00\x00\x00\x00\x00\x00\x00\xe8\x00\x00\x00\x00\x00\x00\x00\xe9\x00\x00\x00\x00\x00\x00\x00\xea\x00\x00\x00\x00\x00\x00\x00\xeb\x00\x00\x00\x00\x00\x00\x00\xec\x00\x00\x00\x00\x00\x00\x00\xed\x00\x00\x00\x00\x00\x00\x00\xee\x00\x00\x00\x00\x00\x00\x00\xef\x00\x00\x00\x00\x00\x00\x00\xf0\x00\x00\x00\x00\x00\x00\x00\xf1\x00\x00\x00\x00\x00\x00\x00\xf2\x00\x00\x00\x00\x00\x00\x00\xf3\x00\x00\x00\x00\x00\x00\x00\xf4\x00\x00\x00\x00\x00\x00\x00\xf5\x00\x00\x00\x00\x00\x00\x00\xf6\x00\x00\x00\x00\x00\x00\x00\xf7\x00\x00\x00\x00\x00\x00\x00'
p392
tp393
bsg386
g314
sasstp394
bsb.