ccopy_reg
_reconstructor
p0
(cpandas.core.frame
DataFrame
p1
c__builtin__
object
p2
Ntp3
Rp4
(dp5
S'_metadata'
p6
(lp7
sS'_typ'
p8
S'dataframe'
p9
sS'_data'
p10
g0
(cpandas.core.internals
BlockManager
p11
g2
Ntp12
Rp13
((lp14
cpandas.core.indexes.base
_new_Index
p15
(cpandas.core.indexes.base
Index
p16
(dp17
S'data'
p18
cnumpy.core.multiarray
_reconstruct
p19
(cnumpy
ndarray
p20
(I0
tp21
S'b'
p22
tp23
Rp24
(I1
(I248
tp25
cnumpy
dtype
p26
(S'O8'
p27
I0
I1
tp28
Rp29
(I3
S'|'
p30
NNNI-1
I-1
I63
tp31
bI00
(lp32
S'year'
p33
aS'type'
p34
aS'procOriginal'
p35
aS'proc'
p36
aS'proc_s0'
p37
aS'cat'
p38
aS'inputWSFile'
p39
aS'nominalDataName'
p40
aS'modelWSFile'
p41
aS'model'
p42
aS'rate'
p43
aS'nominal_yield'
p44
aS'sumw2'
p45
aS'nominal_yield_COWCorr'
p46
aS'weight_Pileup_up_yield'
p47
aS'weight_Pileup_down_yield'
p48
aS'weight_TriggerSF_up_yield'
p49
aS'weight_TriggerSF_down_yield'
p50
aS'weight_ElectronVetoSF_up_yield'
p51
aS'weight_ElectronVetoSF_down_yield'
p52
aS'weight_PreselSF_up_yield'
p53
aS'weight_PreselSF_down_yield'
p54
aS'energyErrShift_up_yield'
p55
aS'energyErrShift_down_yield'
p56
aS'weight_LHEScal_0_yield'
p57
aS'weight_LHEScal_0_yield_COWCorr'
p58
aS'weight_LHEScal_1_yield'
p59
aS'weight_LHEScal_1_yield_COWCorr'
p60
aS'weight_LHEScal_3_yield'
p61
aS'weight_LHEScal_3_yield_COWCorr'
p62
aS'weight_LHEScal_5_yield'
p63
aS'weight_LHEScal_5_yield_COWCorr'
p64
aS'weight_LHEScal_7_yield'
p65
aS'weight_LHEScal_7_yield_COWCorr'
p66
aS'weight_LHEScal_8_yield'
p67
aS'weight_LHEScal_8_yield_COWCorr'
p68
aS'weight_AlphaS_up_yield'
p69
aS'weight_AlphaS_down_yield'
p70
aS'weight_AlphaS_up_yield_COWCorr'
p71
aS'weight_AlphaS_down_yield_COWCorr'
p72
aS'weight_PS_ISR_up_yield'
p73
aS'weight_PS_ISR_down_yield'
p74
aS'weight_PS_ISR_up_yield_COWCorr'
p75
aS'weight_PS_ISR_down_yield_COWCorr'
p76
aS'weight_PS_FSR_up_yield'
p77
aS'weight_PS_FSR_down_yield'
p78
aS'weight_PS_FSR_up_yield_COWCorr'
p79
aS'weight_PS_FSR_down_yield_COWCorr'
p80
aS'weight_LHEPd_1_yield'
p81
aS'weight_LHEPd_1_yield_COWCorr'
p82
aS'weight_LHEPd_2_yield'
p83
aS'weight_LHEPd_2_yield_COWCorr'
p84
aS'weight_LHEPd_3_yield'
p85
aS'weight_LHEPd_3_yield_COWCorr'
p86
aS'weight_LHEPd_4_yield'
p87
aS'weight_LHEPd_4_yield_COWCorr'
p88
aS'weight_LHEPd_5_yield'
p89
aS'weight_LHEPd_5_yield_COWCorr'
p90
aS'weight_LHEPd_6_yield'
p91
aS'weight_LHEPd_6_yield_COWCorr'
p92
aS'weight_LHEPd_7_yield'
p93
aS'weight_LHEPd_7_yield_COWCorr'
p94
aS'weight_LHEPd_8_yield'
p95
aS'weight_LHEPd_8_yield_COWCorr'
p96
aS'weight_LHEPd_9_yield'
p97
aS'weight_LHEPd_9_yield_COWCorr'
p98
aS'weight_LHEPd_10_yield'
p99
aS'weight_LHEPd_10_yield_COWCorr'
p100
aS'weight_LHEPd_11_yield'
p101
aS'weight_LHEPd_11_yield_COWCorr'
p102
aS'weight_LHEPd_12_yield'
p103
aS'weight_LHEPd_12_yield_COWCorr'
p104
aS'weight_LHEPd_13_yield'
p105
aS'weight_LHEPd_13_yield_COWCorr'
p106
aS'weight_LHEPd_14_yield'
p107
aS'weight_LHEPd_14_yield_COWCorr'
p108
aS'weight_LHEPd_15_yield'
p109
aS'weight_LHEPd_15_yield_COWCorr'
p110
aS'weight_LHEPd_16_yield'
p111
aS'weight_LHEPd_16_yield_COWCorr'
p112
aS'weight_LHEPd_17_yield'
p113
aS'weight_LHEPd_17_yield_COWCorr'
p114
aS'weight_LHEPd_18_yield'
p115
aS'weight_LHEPd_18_yield_COWCorr'
p116
aS'weight_LHEPd_19_yield'
p117
aS'weight_LHEPd_19_yield_COWCorr'
p118
aS'weight_LHEPd_20_yield'
p119
aS'weight_LHEPd_20_yield_COWCorr'
p120
aS'weight_LHEPd_21_yield'
p121
aS'weight_LHEPd_21_yield_COWCorr'
p122
aS'weight_LHEPd_22_yield'
p123
aS'weight_LHEPd_22_yield_COWCorr'
p124
aS'weight_LHEPd_23_yield'
p125
aS'weight_LHEPd_23_yield_COWCorr'
p126
aS'weight_LHEPd_24_yield'
p127
aS'weight_LHEPd_24_yield_COWCorr'
p128
aS'weight_LHEPd_25_yield'
p129
aS'weight_LHEPd_25_yield_COWCorr'
p130
aS'weight_LHEPd_26_yield'
p131
aS'weight_LHEPd_26_yield_COWCorr'
p132
aS'weight_LHEPd_27_yield'
p133
aS'weight_LHEPd_27_yield_COWCorr'
p134
aS'weight_LHEPd_28_yield'
p135
aS'weight_LHEPd_28_yield_COWCorr'
p136
aS'weight_LHEPd_29_yield'
p137
aS'weight_LHEPd_29_yield_COWCorr'
p138
aS'weight_LHEPd_30_yield'
p139
aS'weight_LHEPd_30_yield_COWCorr'
p140
aS'weight_LHEPd_31_yield'
p141
aS'weight_LHEPd_31_yield_COWCorr'
p142
aS'weight_LHEPd_32_yield'
p143
aS'weight_LHEPd_32_yield_COWCorr'
p144
aS'weight_LHEPd_33_yield'
p145
aS'weight_LHEPd_33_yield_COWCorr'
p146
aS'weight_LHEPd_34_yield'
p147
aS'weight_LHEPd_34_yield_COWCorr'
p148
aS'weight_LHEPd_35_yield'
p149
aS'weight_LHEPd_35_yield_COWCorr'
p150
aS'weight_LHEPd_36_yield'
p151
aS'weight_LHEPd_36_yield_COWCorr'
p152
aS'weight_LHEPd_37_yield'
p153
aS'weight_LHEPd_37_yield_COWCorr'
p154
aS'weight_LHEPd_38_yield'
p155
aS'weight_LHEPd_38_yield_COWCorr'
p156
aS'weight_LHEPd_39_yield'
p157
aS'weight_LHEPd_39_yield_COWCorr'
p158
aS'weight_LHEPd_40_yield'
p159
aS'weight_LHEPd_40_yield_COWCorr'
p160
aS'weight_LHEPd_41_yield'
p161
aS'weight_LHEPd_41_yield_COWCorr'
p162
aS'weight_LHEPd_42_yield'
p163
aS'weight_LHEPd_42_yield_COWCorr'
p164
aS'weight_LHEPd_43_yield'
p165
aS'weight_LHEPd_43_yield_COWCorr'
p166
aS'weight_LHEPd_44_yield'
p167
aS'weight_LHEPd_44_yield_COWCorr'
p168
aS'weight_LHEPd_45_yield'
p169
aS'weight_LHEPd_45_yield_COWCorr'
p170
aS'weight_LHEPd_46_yield'
p171
aS'weight_LHEPd_46_yield_COWCorr'
p172
aS'weight_LHEPd_47_yield'
p173
aS'weight_LHEPd_47_yield_COWCorr'
p174
aS'weight_LHEPd_48_yield'
p175
aS'weight_LHEPd_48_yield_COWCorr'
p176
aS'weight_LHEPd_49_yield'
p177
aS'weight_LHEPd_49_yield_COWCorr'
p178
aS'weight_LHEPd_50_yield'
p179
aS'weight_LHEPd_50_yield_COWCorr'
p180
aS'weight_LHEPd_51_yield'
p181
aS'weight_LHEPd_51_yield_COWCorr'
p182
aS'weight_LHEPd_52_yield'
p183
aS'weight_LHEPd_52_yield_COWCorr'
p184
aS'weight_LHEPd_53_yield'
p185
aS'weight_LHEPd_53_yield_COWCorr'
p186
aS'weight_LHEPd_54_yield'
p187
aS'weight_LHEPd_54_yield_COWCorr'
p188
aS'weight_LHEPd_55_yield'
p189
aS'weight_LHEPd_55_yield_COWCorr'
p190
aS'weight_LHEPd_56_yield'
p191
aS'weight_LHEPd_56_yield_COWCorr'
p192
aS'weight_LHEPd_57_yield'
p193
aS'weight_LHEPd_57_yield_COWCorr'
p194
aS'weight_LHEPd_58_yield'
p195
aS'weight_LHEPd_58_yield_COWCorr'
p196
aS'weight_LHEPd_59_yield'
p197
aS'weight_LHEPd_59_yield_COWCorr'
p198
aS'weight_LHEPd_60_yield'
p199
aS'weight_LHEPd_60_yield_COWCorr'
p200
aS'weight_LHEPd_61_yield'
p201
aS'weight_LHEPd_61_yield_COWCorr'
p202
aS'weight_LHEPd_62_yield'
p203
aS'weight_LHEPd_62_yield_COWCorr'
p204
aS'weight_LHEPd_63_yield'
p205
aS'weight_LHEPd_63_yield_COWCorr'
p206
aS'weight_LHEPd_64_yield'
p207
aS'weight_LHEPd_64_yield_COWCorr'
p208
aS'weight_LHEPd_65_yield'
p209
aS'weight_LHEPd_65_yield_COWCorr'
p210
aS'weight_LHEPd_66_yield'
p211
aS'weight_LHEPd_66_yield_COWCorr'
p212
aS'weight_LHEPd_67_yield'
p213
aS'weight_LHEPd_67_yield_COWCorr'
p214
aS'weight_LHEPd_68_yield'
p215
aS'weight_LHEPd_68_yield_COWCorr'
p216
aS'weight_LHEPd_69_yield'
p217
aS'weight_LHEPd_69_yield_COWCorr'
p218
aS'weight_LHEPd_70_yield'
p219
aS'weight_LHEPd_70_yield_COWCorr'
p220
aS'weight_LHEPd_71_yield'
p221
aS'weight_LHEPd_71_yield_COWCorr'
p222
aS'weight_LHEPd_72_yield'
p223
aS'weight_LHEPd_72_yield_COWCorr'
p224
aS'weight_LHEPd_73_yield'
p225
aS'weight_LHEPd_73_yield_COWCorr'
p226
aS'weight_LHEPd_74_yield'
p227
aS'weight_LHEPd_74_yield_COWCorr'
p228
aS'weight_LHEPd_75_yield'
p229
aS'weight_LHEPd_75_yield_COWCorr'
p230
aS'weight_LHEPd_76_yield'
p231
aS'weight_LHEPd_76_yield_COWCorr'
p232
aS'weight_LHEPd_77_yield'
p233
aS'weight_LHEPd_77_yield_COWCorr'
p234
aS'weight_LHEPd_78_yield'
p235
aS'weight_LHEPd_78_yield_COWCorr'
p236
aS'weight_LHEPd_79_yield'
p237
aS'weight_LHEPd_79_yield_COWCorr'
p238
aS'weight_LHEPd_80_yield'
p239
aS'weight_LHEPd_80_yield_COWCorr'
p240
aS'weight_LHEPd_81_yield'
p241
aS'weight_LHEPd_81_yield_COWCorr'
p242
aS'weight_LHEPd_82_yield'
p243
aS'weight_LHEPd_82_yield_COWCorr'
p244
aS'weight_LHEPd_83_yield'
p245
aS'weight_LHEPd_83_yield_COWCorr'
p246
aS'weight_LHEPd_84_yield'
p247
aS'weight_LHEPd_84_yield_COWCorr'
p248
aS'weight_LHEPd_85_yield'
p249
aS'weight_LHEPd_85_yield_COWCorr'
p250
aS'weight_LHEPd_86_yield'
p251
aS'weight_LHEPd_86_yield_COWCorr'
p252
aS'weight_LHEPd_87_yield'
p253
aS'weight_LHEPd_87_yield_COWCorr'
p254
aS'weight_LHEPd_88_yield'
p255
aS'weight_LHEPd_88_yield_COWCorr'
p256
aS'weight_LHEPd_89_yield'
p257
aS'weight_LHEPd_89_yield_COWCorr'
p258
aS'weight_LHEPd_90_yield'
p259
aS'weight_LHEPd_90_yield_COWCorr'
p260
aS'weight_LHEPd_91_yield'
p261
aS'weight_LHEPd_91_yield_COWCorr'
p262
aS'weight_LHEPd_92_yield'
p263
aS'weight_LHEPd_92_yield_COWCorr'
p264
aS'weight_LHEPd_93_yield'
p265
aS'weight_LHEPd_93_yield_COWCorr'
p266
aS'weight_LHEPd_94_yield'
p267
aS'weight_LHEPd_94_yield_COWCorr'
p268
aS'weight_LHEPd_95_yield'
p269
aS'weight_LHEPd_95_yield_COWCorr'
p270
aS'weight_LHEPd_96_yield'
p271
aS'weight_LHEPd_96_yield_COWCorr'
p272
aS'weight_LHEPd_97_yield'
p273
aS'weight_LHEPd_97_yield_COWCorr'
p274
aS'weight_LHEPd_98_yield'
p275
aS'weight_LHEPd_98_yield_COWCorr'
p276
aS'weight_LHEPd_99_yield'
p277
aS'weight_LHEPd_99_yield_COWCorr'
p278
aS'weight_LHEPd_100_yield'
p279
aS'weight_LHEPd_100_yield_COWCorr'
p280
atp281
bsS'name'
p282
Nstp283
Rp284
ag15
(cpandas.core.indexes.numeric
Int64Index
p285
(dp286
g18
g19
(g20
(I0
tp287
g22
tp288
Rp289
(I1
(I6
tp290
g26
(S'i8'
p291
I0
I1
tp292
Rp293
(I3
S'<'
p294
NNNI-1
I-1
I0
tp295
bI00
S'\x00\x00\x00\x00\x00\x00\x00\x00\x01\x00\x00\x00\x00\x00\x00\x00\x02\x00\x00\x00\x00\x00\x00\x00\x03\x00\x00\x00\x00\x00\x00\x00\x04\x00\x00\x00\x00\x00\x00\x00\x05\x00\x00\x00\x00\x00\x00\x00'
p296
tp297
bsg282
Nstp298
Rp299
a(lp300
g19
(g20
(I0
tp301
g22
tp302
Rp303
(I1
(I1
I6
tp304
g26
(S'f8'
p305
I0
I1
tp306
Rp307
(I3
S'<'
p308
NNNI-1
I-1
I0
tp309
bI00
S'\x00\x00\x00\x00\x00\xa4\xbf@\x00\x00\x00\x00\x00\xa4\xbf@\x00\x00\x00\x00\x00^\xda@\x00\x00\x00\x00\x00^\xda@\x00\x00\x00\x00\x00\x00\xf0?\x00\x00\x00\x00\x00\x00\xf0\xbf'
p310
tp311
bag19
(g20
(I0
tp312
g22
tp313
Rp314
(I1
(I247
I6
tp315
g29
I00
(lp316
S'2022preEE'
p317
ag317
aS'2022postEE'
p318
ag318
aS'merged'
p319
ag319
aS'sig'
p320
ag320
ag320
ag320
aS'bkg'
p321
ag18
aS'sm_in'
p322
aS'sm_out'
p323
ag322
ag323
aS'bkg_mass'
p324
aS'data_obs'
p325
aS'sm_in_2022preEE_hgg'
p326
aS'sm_out_2022preEE_hgg'
p327
aS'sm_in_2022postEE_hgg'
p328
aS'sm_out_2022postEE_hgg'
p329
ag324
ag325
aS'sm'
p330
aS'sm'
p331
aS'sm'
p332
aS'sm'
p333
aS'-'
p334
ag334
aS'medium_resolution'
p335
ag335
ag335
ag335
ag335
ag335
aS'../input_output_2022preEE/ws_signal/output_SM_M125_13TeV_amcatnloFXFX_pythia8_sm_in.root'
p336
aS'../input_output_2022preEE/ws_signal/output_SM_M125_13TeV_amcatnloFXFX_pythia8_sm_out.root'
p337
aS'../input_output_2022postEE/ws_signal/output_SM_M125_13TeV_amcatnloFXFX_pythia8_sm_in.root'
p338
aS'../input_output_2022postEE/ws_signal/output_SM_M125_13TeV_amcatnloFXFX_pythia8_sm_out.root'
p339
ag334
ag334
aS'sm_in_125_13TeV_medium_resolution'
p340
aS'sm_out_125_13TeV_medium_resolution'
p341
aS'sm_in_125_13TeV_medium_resolution'
p342
aS'sm_out_125_13TeV_medium_resolution'
p343
ag334
ag334
aS'./Models/signal/CMS-HGG_sigfit_packaged_medium_resolution.root'
p344
aS'./Models/signal/CMS-HGG_sigfit_packaged_medium_resolution.root'
p345
aS'./Models/signal/CMS-HGG_sigfit_packaged_medium_resolution.root'
p346
aS'./Models/signal/CMS-HGG_sigfit_packaged_medium_resolution.root'
p347
aS'./Models/background/CMS-HGG_multipdf_medium_resolution.root'
p348
ag348
aS'wsig_13TeV:hggpdfsmrel_sm_in_2022preEE_medium_resolution_13TeV'
p349
aS'wsig_13TeV:hggpdfsmrel_sm_out_2022preEE_medium_resolution_13TeV'
p350
aS'wsig_13TeV:hggpdfsmrel_sm_in_2022postEE_medium_resolution_13TeV'
p351
aS'wsig_13TeV:hggpdfsmrel_sm_out_2022postEE_medium_resolution_13TeV'
p352
aS'multipdf:CMS_hgg_medium_resolution_13TeV_bkgshape'
p353
aS'multipdf:roohist_data_mass_medium_resolution'
p354
aF4.651564673157419
aF0.05005701213810691
aF7.534108810730543
aF0.048055710611416634
ag334
ag334
aF0.0010048983463072712
aF9.742957669769765e-06
aF0.001439363077015349
aF9.17364965937936e-06
ag334
ag334
aF4.651564673157419
aF0.05005701213810691
aF7.534108810730543
aF0.048055710611416634
ag334
ag334
aF4.642779407382232
aF0.050305411420378573
aF7.508112861072289
aF0.04952819038731736
ag334
ag334
aF4.660526607480189
aF0.04990223091882507
aF7.553542289687878
aF0.04683548709692793
ag334
ag334
aF4.661788109719003
aF0.05017625194800633
aF7.550262233842831
aF0.04815901765384535
ag334
ag334
aF4.641337820225347
aF0.0499379842592525
aF7.5179402830828215
aF0.04795249240394898
ag334
ag334
aF4.670110165794077
aF0.05025106055279393
aF7.55104698244191
aF0.04816285544670871
ag334
ag334
aF4.633056183482833
aF0.04986332029459551
aF7.5171894988764025
aF0.04794868426001652
ag334
ag334
aF4.713644527916724
aF0.05066835469075225
aF7.634136262192575
aF0.04866553070421603
ag334
ag334
aF4.589653617239719
aF0.049448126563695266
aF7.434436402725364
aF0.047448170199787455
ag334
ag334
aF4.508767161984028
aF0.04420180280128237
aF7.520237511234633
aF0.04658044710903904
ag334
ag334
aF4.768065157875255
aF0.05340921392086021
aF7.291345062093012
aF0.05051908536925246
ag334
ag334
aF5.310969773234711
aF0.06099777016274975
aF8.541829147004432
aF0.0544991484123723
ag334
ag334
aF5.310969773234711
aF0.06099777016274975
aF8.541829147004432
aF0.0544991484123723
ag334
ag334
aF5.455950601505935
aF0.06073764323971403
aF8.859771205626682
aF0.05467966765384336
ag334
ag334
aF5.455950601505935
aF0.06073764323971403
aF8.859771205626682
aF0.05467966765384336
ag334
ag334
aF4.528777533481316
aF0.05015475186599134
aF7.2724993388695385
aF0.047990710828479353
ag334
ag334
aF4.528777533481316
aF0.05015475186599134
aF7.2724993388695385
aF0.047990710828479353
ag334
ag334
aF4.764053702138499
aF0.049801495096647816
aF7.777549168194622
aF0.0479967411329775
ag334
ag334
aF4.764053702138499
aF0.049801495096647816
aF7.777549168194622
aF0.0479967411329775
ag334
ag334
aF3.9846168741851433
aF0.04208598849264864
aF6.440273931856645
aF0.041947545086578615
ag334
ag334
aF3.9846168741851433
aF0.04208598849264864
aF6.440273931856645
aF0.041947545086578615
ag334
ag334
aF4.076343741686747
aF0.04191834144629609
aF6.636076384566988
aF0.04184712235723026
ag334
ag334
aF4.076343741686747
aF0.04191834144629609
aF6.636076384566988
aF0.04184712235723026
ag334
ag334
aF4.802989200641112
aF0.051987702292877656
aF7.7741390877761996
aF0.049938381080771865
ag334
ag334
aF4.486450965838861
aF0.04808543852277635
aF7.268592808124873
aF0.04618498126742073
ag334
ag334
aF4.802989200641112
aF0.051987702292877656
aF7.7741390877761996
aF0.049938381080771865
ag334
ag334
aF4.486450965838861
aF0.04808543852277635
aF7.268592808124873
aF0.04618498126742073
ag334
ag334
aF4.721014795403325
aF0.050667649671783686
aF7.640274672860746
aF0.04896838969132668
ag334
ag334
aF4.563324353723573
aF0.049241447946832655
aF7.400863477024938
aF0.046966651459676254
ag334
ag334
aF4.721014795403325
aF0.050667649671783686
aF7.640274672860746
aF0.04896838969132668
ag334
ag334
aF4.563324353723573
aF0.049241447946832655
aF7.400863477024938
aF0.046966651459676254
ag334
ag334
aF4.6463226021834165
aF0.05111433507548387
aF7.551352755621262
aF0.048364185129923
ag334
ag334
aF4.669171057936946
aF0.04964280621358142
aF7.485938699603173
aF0.04528377872978854
ag334
ag334
aF4.6463226021834165
aF0.05111433507548387
aF7.551352755621262
aF0.048364185129923
ag334
ag334
aF4.669171057936946
aF0.04964280621358142
aF7.485938699603173
aF0.04528377872978854
ag334
ag334
aF4.657024273030954
aF0.0501084748713983
aF7.541721814324884
aF0.048082670106943164
ag334
ag334
aF4.657024273030954
aF0.0501084748713983
aF7.541721814324884
aF0.048082670106943164
ag334
ag334
aF4.644463658508302
aF0.0500043761774404
aF7.523868973126727
aF0.04797732104836578
ag334
ag334
aF4.644463658508302
aF0.0500043761774404
aF7.523868973126727
aF0.04797732104836578
ag334
ag334
aF4.658526185308705
aF0.05019947285786867
aF7.546677522329426
aF0.048082964703034366
ag334
ag334
aF4.658526185308705
aF0.05019947285786867
aF7.546677522329426
aF0.048082964703034366
ag334
ag334
aF4.660771386374144
aF0.050120583225201555
aF7.5504624523619155
aF0.04814722366915607
ag334
ag334
aF4.660771386374144
aF0.050120583225201555
aF7.5504624523619155
aF0.04814722366915607
ag334
ag334
aF4.660189555212133
aF0.05019813289478054
aF7.54824764886412
aF0.048089447144758504
ag334
ag334
aF4.660189555212133
aF0.05019813289478054
aF7.54824764886412
aF0.048089447144758504
ag334
ag334
aF4.659936644417391
aF0.05015390983616201
aF7.552088351569643
aF0.04813019784652298
ag334
ag334
aF4.659936644417391
aF0.05015390983616201
aF7.552088351569643
aF0.04813019784652298
ag334
ag334
aF4.670997151634378
aF0.05014846219667903
aF7.576923632146118
aF0.04817041539638711
ag334
ag334
aF4.670997151634378
aF0.05014846219667903
aF7.576923632146118
aF0.04817041539638711
ag334
ag334
aF4.671869821658898
aF0.050276332178319276
aF7.577601839589882
aF0.048188630845945594
ag334
ag334
aF4.671869821658898
aF0.050276332178319276
aF7.577601839589882
aF0.048188630845945594
ag334
ag334
aF4.648714732545975
aF0.05002025852358407
aF7.529179972047993
aF0.04801809467336927
ag334
ag334
aF4.648714732545975
aF0.05002025852358407
aF7.529179972047993
aF0.04801809467336927
ag334
ag334
aF4.6525415543197575
aF0.05006130611843777
aF7.533604405718987
aF0.04802703807666639
ag334
ag334
aF4.6525415543197575
aF0.05006130611843777
aF7.533604405718987
aF0.04802703807666639
ag334
ag334
aF4.633923574370604
aF0.04994454670315835
aF7.493679731785742
aF0.04790622039378373
ag334
ag334
aF4.633923574370604
aF0.04994454670315835
aF7.493679731785742
aF0.04790622039378373
ag334
ag334
aF4.658891817050048
aF0.050091613893661784
aF7.55238940418516
aF0.04812638626165414
ag334
ag334
aF4.658891817050048
aF0.050091613893661784
aF7.55238940418516
aF0.04812638626165414
ag334
ag334
aF4.646045821530644
aF0.05004137313517325
aF7.521597466142275
aF0.04805225889951073
ag334
ag334
aF4.646045821530644
aF0.05004137313517325
aF7.521597466142275
aF0.04805225889951073
ag334
ag334
aF4.648633659277126
aF0.050076734744964886
aF7.526605240567007
aF0.048072449076134054
ag334
ag334
aF4.648633659277126
aF0.050076734744964886
aF7.526605240567007
aF0.048072449076134054
ag334
ag334
aF4.653312670107237
aF0.05013663645955713
aF7.534693296736759
aF0.04811895418757926
ag334
ag334
aF4.653312670107237
aF0.05013663645955713
aF7.534693296736759
aF0.04811895418757926
ag334
ag334
aF4.640360653910001
aF0.04990802026314291
aF7.512356095375022
aF0.048002134076347694
ag334
ag334
aF4.640360653910001
aF0.04990802026314291
aF7.512356095375022
aF0.048002134076347694
ag334
ag334
aF4.639811083391238
aF0.05001519813817273
aF7.512275583179693
aF0.047998709271400875
ag334
ag334
aF4.639811083391238
aF0.05001519813817273
aF7.512275583179693
aF0.047998709271400875
ag334
ag334
aF4.663763629594844
aF0.05010084901176854
aF7.561416336647199
aF0.04809479919140949
ag334
ag334
aF4.663763629594844
aF0.05010084901176854
aF7.561416336647199
aF0.04809479919140949
ag334
ag334
aF4.661909841116525
aF0.05020290581340141
aF7.550569268572024
aF0.04812362687847608
ag334
ag334
aF4.661909841116525
aF0.05020290581340141
aF7.550569268572024
aF0.04812362687847608
ag334
ag334
aF4.647785909960867
aF0.05014980725738768
aF7.528114285311595
aF0.048037550181873064
ag334
ag334
aF4.647785909960867
aF0.05014980725738768
aF7.528114285311595
aF0.048037550181873064
ag334
ag334
aF4.659499428468684
aF0.05010219249994118
aF7.549819985222634
aF0.048084014637179484
ag334
ag334
aF4.659499428468684
aF0.05010219249994118
aF7.549819985222634
aF0.048084014637179484
ag334
ag334
aF4.647301296765821
aF0.05003981723653583
aF7.5294159244047805
aF0.04804867166556782
ag334
ag334
aF4.647301296765821
aF0.05003981723653583
aF7.5294159244047805
aF0.04804867166556782
ag334
ag334
aF4.6514015599490115
aF0.050100610184088595
aF7.531617596246697
aF0.048096164089401344
ag334
ag334
aF4.6514015599490115
aF0.050100610184088595
aF7.531617596246697
aF0.048096164089401344
ag334
ag334
aF4.6515961277597295
aF0.05017184392272122
aF7.5351809272608685
aF0.048020791081191304
ag334
ag334
aF4.6515961277597295
aF0.05017184392272122
aF7.5351809272608685
aF0.048020791081191304
ag334
ag334
aF4.650718955940104
aF0.05017573952367874
aF7.533555030736994
aF0.04806046272163707
ag334
ag334
aF4.650718955940104
aF0.05017573952367874
aF7.533555030736994
aF0.04806046272163707
ag334
ag334
aF4.6494701838429515
aF0.04993547837712523
aF7.531144456421759
aF0.04804257806251256
ag334
ag334
aF4.6494701838429515
aF0.04993547837712523
aF7.531144456421759
aF0.04804257806251256
ag334
ag334
aF4.645983544629263
aF0.04997238424443915
aF7.5251780196607125
aF0.04804326424387839
ag334
ag334
aF4.645983544629263
aF0.04997238424443915
aF7.5251780196607125
aF0.04804326424387839
ag334
ag334
aF4.654796706226418
aF0.050097347676886235
aF7.539206170779061
aF0.048055767682863196
ag334
ag334
aF4.654796706226418
aF0.050097347676886235
aF7.539206170779061
aF0.048055767682863196
ag334
ag334
aF4.643636458369878
aF0.05011179065362563
aF7.5246490262317725
aF0.048009888368103035
ag334
ag334
aF4.643636458369878
aF0.05011179065362563
aF7.5246490262317725
aF0.048009888368103035
ag334
ag334
aF4.650639269572273
aF0.05012667464668255
aF7.5312174575438595
aF0.048056612609959505
ag334
ag334
aF4.650639269572273
aF0.05012667464668255
aF7.5312174575438595
aF0.048056612609959505
ag334
ag334
aF4.645237884167478
aF0.049939750268251704
aF7.523547081485335
aF0.048028817712974875
ag334
ag334
aF4.645237884167478
aF0.049939750268251704
aF7.523547081485335
aF0.048028817712974875
ag334
ag334
aF4.652943639050212
aF0.050134245860299936
aF7.536053296549617
aF0.048029962992588375
ag334
ag334
aF4.652943639050212
aF0.050134245860299936
aF7.536053296549617
aF0.048029962992588375
ag334
ag334
aF4.648421861003843
aF0.05020054262552496
aF7.529641157306648
aF0.048046668030994964
ag334
ag334
aF4.648421861003843
aF0.05020054262552496
aF7.529641157306648
aF0.048046668030994964
ag334
ag334
aF4.648417623887209
aF0.050045267695769016
aF7.530739107478496
aF0.048023407258342754
ag334
ag334
aF4.648417623887209
aF0.050045267695769016
aF7.530739107478496
aF0.048023407258342754
ag334
ag334
aF4.651737189134867
aF0.049880154819886835
aF7.53352235763046
aF0.04805807255007936
ag334
ag334
aF4.651737189134867
aF0.049880154819886835
aF7.53352235763046
aF0.04805807255007936
ag334
ag334
aF4.655729094696594
aF0.05005896736173738
aF7.541189424020888
aF0.048082790821364255
ag334
ag334
aF4.655729094696594
aF0.05005896736173738
aF7.541189424020888
aF0.048082790821364255
ag334
ag334
aF4.65151574172044
aF0.05007520758730483
aF7.533978418274967
aF0.04802713096519388
ag334
ag334
aF4.65151574172044
aF0.05007520758730483
aF7.533978418274967
aF0.04802713096519388
ag334
ag334
aF4.652846372224836
aF0.05009256239186862
aF7.535556986881941
aF0.04807292849368697
ag334
ag334
aF4.652846372224836
aF0.05009256239186862
aF7.535556986881941
aF0.04807292849368697
ag334
ag334
aF4.650951148591469
aF0.0499465692975454
aF7.532939667213959
aF0.04805893471100454
ag334
ag334
aF4.650951148591469
aF0.0499465692975454
aF7.532939667213959
aF0.04805893471100454
ag334
ag334
aF4.650100714306273
aF0.05005629142234393
aF7.532564963349313
aF0.04804964154798082
ag334
ag334
aF4.650100714306273
aF0.05005629142234393
aF7.532564963349313
aF0.04804964154798082
ag334
ag334
aF4.652686672970216
aF0.05021308987952291
aF7.537292367914571
aF0.04805889245440968
ag334
ag334
aF4.652686672970216
aF0.05021308987952291
aF7.537292367914571
aF0.04805889245440968
ag334
ag334
aF4.652035009699223
aF0.050017270705026505
aF7.53438204477144
aF0.048086181332900504
ag334
ag334
aF4.652035009699223
aF0.050017270705026505
aF7.53438204477144
aF0.048086181332900504
ag334
ag334
aF4.649267648262263
aF0.049926325154935745
aF7.531420019275833
aF0.048054837318491306
ag334
ag334
aF4.649267648262263
aF0.049926325154935745
aF7.531420019275833
aF0.048054837318491306
ag334
ag334
aF4.651299046302068
aF0.05004713554269522
aF7.534414804510045
aF0.048056898618687824
ag334
ag334
aF4.651299046302068
aF0.05004713554269522
aF7.534414804510045
aF0.048056898618687824
ag334
ag334
aF4.651853070023427
aF0.05007851667488686
aF7.536120360073594
aF0.04804411604984366
ag334
ag334
aF4.651853070023427
aF0.05007851667488686
aF7.536120360073594
aF0.04804411604984366
ag334
ag334
aF4.651866840763929
aF0.04998623578489325
aF7.535853814325796
aF0.048029570819271034
ag334
ag334
aF4.651866840763929
aF0.04998623578489325
aF7.535853814325796
aF0.048029570819271034
ag334
ag334
aF4.650273274444333
aF0.050009830934961925
aF7.532906243823341
aF0.048036870761592215
ag334
ag334
aF4.650273274444333
aF0.050009830934961925
aF7.532906243823341
aF0.048036870761592215
ag334
ag334
aF4.650832882834311
aF0.05001532535159557
aF7.532592539090366
aF0.048069039777721076
ag334
ag334
aF4.650832882834311
aF0.05001532535159557
aF7.532592539090366
aF0.048069039777721076
ag334
ag334
aF4.649692180206869
aF0.04998431862212199
aF7.531553394460207
aF0.04803019577836637
ag334
ag334
aF4.649692180206869
aF0.04998431862212199
aF7.531553394460207
aF0.04803019577836637
ag334
ag334
aF4.651060410397082
aF0.05007687963128015
aF7.533165995569794
aF0.04805851446218243
ag334
ag334
aF4.651060410397082
aF0.05007687963128015
aF7.533165995569794
aF0.04805851446218243
ag334
ag334
aF4.651272406646613
aF0.05000720774958933
aF7.533259412647392
aF0.04805821221802491
ag334
ag334
aF4.651272406646613
aF0.05000720774958933
aF7.533259412647392
aF0.04805821221802491
ag334
ag334
aF4.6537435406807015
aF0.05015669070885061
aF7.5362668277075535
aF0.04809249714723537
ag334
ag334
aF4.6537435406807015
aF0.05015669070885061
aF7.5362668277075535
aF0.04809249714723537
ag334
ag334
aF4.6512122626452905
aF0.04998985612337354
aF7.532972809756045
aF0.04804946607785259
ag334
ag334
aF4.6512122626452905
aF0.04998985612337354
aF7.532972809756045
aF0.04804946607785259
ag334
ag334
aF4.65095108773919
aF0.05014841353652711
aF7.534033652422666
aF0.048063496007670604
ag334
ag334
aF4.65095108773919
aF0.05014841353652711
aF7.534033652422666
aF0.048063496007670604
ag334
ag334
aF4.653099634829874
aF0.05005395878147962
aF7.536566137289318
aF0.04805299655275495
ag334
ag334
aF4.653099634829874
aF0.05005395878147962
aF7.536566137289318
aF0.04805299655275495
ag334
ag334
aF4.651772950385626
aF0.05007556836510878
aF7.534163973647225
aF0.048088634578485195
ag334
ag334
aF4.651772950385626
aF0.05007556836510878
aF7.534163973647225
aF0.048088634578485195
ag334
ag334
aF4.652855521467497
aF0.04999961919025634
aF7.536140452449353
aF0.048054337182437096
ag334
ag334
aF4.652855521467497
aF0.04999961919025634
aF7.536140452449353
aF0.048054337182437096
ag334
ag334
aF4.651931008885682
aF0.05004324395232418
aF7.533386677371336
aF0.048067683315147526
ag334
ag334
aF4.651931008885682
aF0.05004324395232418
aF7.533386677371336
aF0.048067683315147526
ag334
ag334
aF4.652929930061588
aF0.05007244336358801
aF7.53562953020174
aF0.04806378706995244
ag334
ag334
aF4.652929930061588
aF0.05007244336358801
aF7.53562953020174
aF0.04806378706995244
ag334
ag334
aF4.651538560650176
aF0.05001943796561321
aF7.5335624939626475
aF0.04805716034764721
ag334
ag334
aF4.651538560650176
aF0.05001943796561321
aF7.5335624939626475
aF0.04805716034764721
ag334
ag334
aF4.651423773855023
aF0.05005015836808748
aF7.5343112973928354
aF0.04806353940732595
ag334
ag334
aF4.651423773855023
aF0.05005015836808748
aF7.5343112973928354
aF0.04806353940732595
ag334
ag334
aF4.653058295035027
aF0.05006245664878488
aF7.537536168757949
aF0.048060642085034924
ag334
ag334
aF4.653058295035027
aF0.05006245664878488
aF7.537536168757949
aF0.048060642085034924
ag334
ag334
aF4.651942575605509
aF0.04998651124020428
aF7.534198661577334
aF0.04805716880496574
ag334
ag334
aF4.651942575605509
aF0.04998651124020428
aF7.534198661577334
aF0.04805716880496574
ag334
ag334
aF4.653277985118017
aF0.05007035598008601
aF7.536896949370365
aF0.04807020651367987
ag334
ag334
aF4.653277985118017
aF0.05007035598008601
aF7.536896949370365
aF0.04807020651367987
ag334
ag334
aF4.65344808221472
aF0.05003904975646331
aF7.536677147044278
aF0.04807551539971709
ag334
ag334
aF4.65344808221472
aF0.05003904975646331
aF7.536677147044278
aF0.04807551539971709
ag334
ag334
aF4.652529553448194
aF0.05007553981164905
aF7.536373368725412
aF0.04807085595516967
ag334
ag334
aF4.652529553448194
aF0.05007553981164905
aF7.536373368725412
aF0.04807085595516967
ag334
ag334
aF4.652920955872478
aF0.05005498965434804
aF7.535817666900232
aF0.048072693283914975
ag334
ag334
aF4.652920955872478
aF0.05005498965434804
aF7.535817666900232
aF0.048072693283914975
ag334
ag334
aF4.651810132955846
aF0.05007495952591163
aF7.535081917675104
aF0.04807583063603837
ag334
ag334
aF4.651810132955846
aF0.05007495952591163
aF7.535081917675104
aF0.04807583063603837
ag334
ag334
aF4.652194702794036
aF0.050052597798518485
aF7.535601863952186
aF0.04804762702250318
ag334
ag334
aF4.652194702794036
aF0.050052597798518485
aF7.535601863952186
aF0.04804762702250318
ag334
ag334
aF4.65197591332367
aF0.050037420668874365
aF7.534189703193264
aF0.04807929193889597
ag334
ag334
aF4.65197591332367
aF0.050037420668874365
aF7.534189703193264
aF0.04807929193889597
ag334
ag334
aF4.652366343434358
aF0.050085144675052026
aF7.535006385885081
aF0.04806192153024927
ag334
ag334
aF4.652366343434358
aF0.050085144675052026
aF7.535006385885081
aF0.04806192153024927
ag334
ag334
aF4.651872541740016
aF0.05005742408530257
aF7.534066062960842
aF0.04805193574233113
ag334
ag334
aF4.651872541740016
aF0.05005742408530257
aF7.534066062960842
aF0.04805193574233113
ag334
ag334
aF4.6519307702135775
aF0.05008098126997578
aF7.535104249813501
aF0.048029993080139034
ag334
ag334
aF4.6519307702135775
aF0.05008098126997578
aF7.535104249813501
aF0.048029993080139034
ag334
ag334
aF4.651234402989375
aF0.05003907728214876
aF7.533866705983959
aF0.04804015567757068
ag334
ag334
aF4.651234402989375
aF0.05003907728214876
aF7.533866705983959
aF0.04804015567757068
ag334
ag334
aF4.650624635977675
aF0.05007212262709622
aF7.532885649260648
aF0.04804593675177274
ag334
ag334
aF4.650624635977675
aF0.05007212262709622
aF7.532885649260648
aF0.04804593675177274
ag334
ag334
aF4.651524912440769
aF0.05008406753568259
aF7.533828762195319
aF0.048048994240739384
ag334
ag334
aF4.651524912440769
aF0.05008406753568259
aF7.533828762195319
aF0.048048994240739384
ag334
ag334
aF4.654016037959276
aF0.05007933288047816
aF7.538026833593676
aF0.048083726672013785
ag334
ag334
aF4.654016037959276
aF0.05007933288047816
aF7.538026833593676
aF0.048083726672013785
ag334
ag334
aF4.651428214398786
aF0.0501065199780996
aF7.533641105525276
aF0.04807035273717884
ag334
ag334
aF4.651428214398786
aF0.0501065199780996
aF7.533641105525276
aF0.04807035273717884
ag334
ag334
aF4.650712107058483
aF0.05003869854870362
aF7.532778243426018
aF0.04803991167287567
ag334
ag334
aF4.650712107058483
aF0.05003869854870362
aF7.532778243426018
aF0.04803991167287567
ag334
ag334
aF4.6518186554470216
aF0.05007472918432205
aF7.53432816702228
aF0.0480628589979742
ag334
ag334
aF4.6518186554470216
aF0.05007472918432205
aF7.53432816702228
aF0.0480628589979742
ag334
ag334
aF4.651104430614474
aF0.05003098491574556
aF7.532951257559046
aF0.048047521946809356
ag334
ag334
aF4.651104430614474
aF0.05003098491574556
aF7.532951257559046
aF0.048047521946809356
ag334
ag334
aF4.652061942920657
aF0.05005806722262481
aF7.535192470039387
aF0.04807352390407983
ag334
ag334
aF4.652061942920657
aF0.05005806722262481
aF7.535192470039387
aF0.04807352390407983
ag334
ag334
aF4.651820390250917
aF0.05007459765156138
aF7.534762003584549
aF0.04806336862866319
ag334
ag334
aF4.651820390250917
aF0.05007459765156138
aF7.534762003584549
aF0.04806336862866319
ag334
ag334
aF4.652219030348081
aF0.050055339079611696
aF7.535527609616762
aF0.04806816133778639
ag334
ag334
aF4.652219030348081
aF0.050055339079611696
aF7.535527609616762
aF0.04806816133778639
ag334
ag334
aF4.651359841474922
aF0.05004910389267695
aF7.533680089399842
aF0.048052601334821685
ag334
ag334
aF4.651359841474922
aF0.05004910389267695
aF7.533680089399842
aF0.048052601334821685
ag334
ag334
aF4.65104701939699
aF0.050032987549214605
aF7.533143122862741
aF0.048058896415032255
ag334
ag334
aF4.65104701939699
aF0.050032987549214605
aF7.533143122862741
aF0.048058896415032255
ag334
ag334
aF4.6521041610478
aF0.050097763071413635
aF7.535045831631783
aF0.04806895996830751
ag334
ag334
aF4.6521041610478
aF0.050097763071413635
aF7.535045831631783
aF0.04806895996830751
ag334
ag334
aF4.651896535775335
aF0.05004659857141387
aF7.534497341725607
aF0.04805645007808684
ag334
ag334
aF4.651896535775335
aF0.05004659857141387
aF7.534497341725607
aF0.04805645007808684
ag334
ag334
aF4.651596482245973
aF0.05003522779002953
aF7.534574157954298
aF0.04804999815598446
ag334
ag334
aF4.651596482245973
aF0.05003522779002953
aF7.534574157954298
aF0.04804999815598446
ag334
ag334
aF4.651919448747572
aF0.05008568446178474
aF7.534576361775743
aF0.04806676214023869
ag334
ag334
aF4.651919448747572
aF0.05008568446178474
aF7.534576361775743
aF0.04806676214023869
ag334
ag334
aF4.651876085044292
aF0.050054083794471016
aF7.534285275556921
aF0.04806431663589505
ag334
ag334
aF4.651876085044292
aF0.050054083794471016
aF7.534285275556921
aF0.04806431663589505
ag334
ag334
aF4.652200943394834
aF0.05005409815344863
aF7.534823840405477
aF0.04807368596856111
ag334
ag334
aF4.652200943394834
aF0.05005409815344863
aF7.534823840405477
aF0.04807368596856111
ag334
ag334
aF4.651098486375488
aF0.05005055576044097
aF7.533645044814283
aF0.048048594206084795
ag334
ag334
aF4.651098486375488
aF0.05005055576044097
aF7.533645044814283
aF0.048048594206084795
ag334
ag334
aF4.651010903986684
aF0.05005866517406083
aF7.532779938912888
aF0.048053994445604875
ag334
ag334
aF4.651010903986684
aF0.05005866517406083
aF7.532779938912888
aF0.048053994445604875
ag334
ag334
aF4.651547731935601
aF0.050072085280075514
aF7.534227262465994
aF0.04807223903040978
ag334
ag334
aF4.651547731935601
aF0.050072085280075514
aF7.534227262465994
aF0.04807223903040978
ag334
ag334
aF4.650807306005069
aF0.05003045075256757
aF7.53362928345852
aF0.04804586424256091
ag334
ag334
aF4.650807306005069
aF0.05003045075256757
aF7.53362928345852
aF0.04804586424256091
ag334
ag334
aF4.651844631683142
aF0.05006198159399801
aF7.53418625577216
aF0.04805928844554299
ag334
ag334
aF4.651844631683142
aF0.05006198159399801
aF7.53418625577216
aF0.04805928844554299
ag334
ag334
aF4.651843490428281
aF0.05007488789907438
aF7.5342862849858125
aF0.04805764835994482
ag334
ag334
aF4.651843490428281
aF0.05007488789907438
aF7.5342862849858125
aF0.04805764835994482
ag334
ag334
aF4.652156369614874
aF0.05007113330245589
aF7.534647694830541
aF0.048060394567108054
ag334
ag334
aF4.652156369614874
aF0.05007113330245589
aF7.534647694830541
aF0.048060394567108054
ag334
ag334
aF4.651524666404637
aF0.050056656922889325
aF7.5340394175584535
aF0.04805525547413553
ag334
ag334
aF4.651524666404637
aF0.050056656922889325
aF7.5340394175584535
aF0.04805525547413553
ag334
ag334
atp355
ba(lp356
g15
(g16
(dp357
g18
g19
(g20
(I0
tp358
g22
tp359
Rp360
(I1
(I1
tp361
g29
I00
(lp362
g43
atp363
bsg282
Nstp364
Rp365
ag15
(g16
(dp366
g18
g19
(g20
(I0
tp367
g22
tp368
Rp369
(I1
(I247
tp370
g29
I00
(lp371
g33
ag34
ag35
ag36
ag37
ag38
ag39
ag40
ag41
ag42
ag44
ag45
ag46
ag47
ag48
ag49
ag50
ag51
ag52
ag53
ag54
ag55
ag56
ag57
ag58
ag59
ag60
ag61
ag62
ag63
ag64
ag65
ag66
ag67
ag68
ag69
ag70
ag71
ag72
ag73
ag74
ag75
ag76
ag77
ag78
ag79
ag80
ag81
ag82
ag83
ag84
ag85
ag86
ag87
ag88
ag89
ag90
ag91
ag92
ag93
ag94
ag95
ag96
ag97
ag98
ag99
ag100
ag101
ag102
ag103
ag104
ag105
ag106
ag107
ag108
ag109
ag110
ag111
ag112
ag113
ag114
ag115
ag116
ag117
ag118
ag119
ag120
ag121
ag122
ag123
ag124
ag125
ag126
ag127
ag128
ag129
ag130
ag131
ag132
ag133
ag134
ag135
ag136
ag137
ag138
ag139
ag140
ag141
ag142
ag143
ag144
ag145
ag146
ag147
ag148
ag149
ag150
ag151
ag152
ag153
ag154
ag155
ag156
ag157
ag158
ag159
ag160
ag161
ag162
ag163
ag164
ag165
ag166
ag167
ag168
ag169
ag170
ag171
ag172
ag173
ag174
ag175
ag176
ag177
ag178
ag179
ag180
ag181
ag182
ag183
ag184
ag185
ag186
ag187
ag188
ag189
ag190
ag191
ag192
ag193
ag194
ag195
ag196
ag197
ag198
ag199
ag200
ag201
ag202
ag203
ag204
ag205
ag206
ag207
ag208
ag209
ag210
ag211
ag212
ag213
ag214
ag215
ag216
ag217
ag218
ag219
ag220
ag221
ag222
ag223
ag224
ag225
ag226
ag227
ag228
ag229
ag230
ag231
ag232
ag233
ag234
ag235
ag236
ag237
ag238
ag239
ag240
ag241
ag242
ag243
ag244
ag245
ag246
ag247
ag248
ag249
ag250
ag251
ag252
ag253
ag254
ag255
ag256
ag257
ag258
ag259
ag260
ag261
ag262
ag263
ag264
ag265
ag266
ag267
ag268
ag269
ag270
ag271
ag272
ag273
ag274
ag275
ag276
ag277
ag278
ag279
ag280
atp372
bsg282
Nstp373
Rp374
a(dp375
S'0.14.1'
p376
(dp377
S'axes'
p378
g14
sS'blocks'
p379
(lp380
(dp381
S'mgr_locs'
p382
c__builtin__
slice
p383
(I10
I11
I1
tp384
Rp385
sS'values'
p386
g303
sa(dp387
g382
g19
(g20
(I0
tp388
g22
tp389
Rp390
(I1
(I247
tp391
g293
I00
S'\x00\x00\x00\x00\x00\x00\x00\x00\x01\x00\x00\x00\x00\x00\x00\x00\x02\x00\x00\x00\x00\x00\x00\x00\x03\x00\x00\x00\x00\x00\x00\x00\x04\x00\x00\x00\x00\x00\x00\x00\x05\x00\x00\x00\x00\x00\x00\x00\x06\x00\x00\x00\x00\x00\x00\x00\x07\x00\x00\x00\x00\x00\x00\x00\x08\x00\x00\x00\x00\x00\x00\x00\t\x00\x00\x00\x00\x00\x00\x00\x0b\x00\x00\x00\x00\x00\x00\x00\x0c\x00\x00\x00\x00\x00\x00\x00\r\x00\x00\x00\x00\x00\x00\x00\x0e\x00\x00\x00\x00\x00\x00\x00\x0f\x00\x00\x00\x00\x00\x00\x00\x10\x00\x00\x00\x00\x00\x00\x00\x11\x00\x00\x00\x00\x00\x00\x00\x12\x00\x00\x00\x00\x00\x00\x00\x13\x00\x00\x00\x00\x00\x00\x00\x14\x00\x00\x00\x00\x00\x00\x00\x15\x00\x00\x00\x00\x00\x00\x00\x16\x00\x00\x00\x00\x00\x00\x00\x17\x00\x00\x00\x00\x00\x00\x00\x18\x00\x00\x00\x00\x00\x00\x00\x19\x00\x00\x00\x00\x00\x00\x00\x1a\x00\x00\x00\x00\x00\x00\x00\x1b\x00\x00\x00\x00\x00\x00\x00\x1c\x00\x00\x00\x00\x00\x00\x00\x1d\x00\x00\x00\x00\x00\x00\x00\x1e\x00\x00\x00\x00\x00\x00\x00\x1f\x00\x00\x00\x00\x00\x00\x00 \x00\x00\x00\x00\x00\x00\x00!\x00\x00\x00\x00\x00\x00\x00"\x00\x00\x00\x00\x00\x00\x00#\x00\x00\x00\x00\x00\x00\x00$\x00\x00\x00\x00\x00\x00\x00%\x00\x00\x00\x00\x00\x00\x00&\x00\x00\x00\x00\x00\x00\x00\'\x00\x00\x00\x00\x00\x00\x00(\x00\x00\x00\x00\x00\x00\x00)\x00\x00\x00\x00\x00\x00\x00*\x00\x00\x00\x00\x00\x00\x00+\x00\x00\x00\x00\x00\x00\x00,\x00\x00\x00\x00\x00\x00\x00-\x00\x00\x00\x00\x00\x00\x00.\x00\x00\x00\x00\x00\x00\x00/\x00\x00\x00\x00\x00\x00\x000\x00\x00\x00\x00\x00\x00\x001\x00\x00\x00\x00\x00\x00\x002\x00\x00\x00\x00\x00\x00\x003\x00\x00\x00\x00\x00\x00\x004\x00\x00\x00\x00\x00\x00\x005\x00\x00\x00\x00\x00\x00\x006\x00\x00\x00\x00\x00\x00\x007\x00\x00\x00\x00\x00\x00\x008\x00\x00\x00\x00\x00\x00\x009\x00\x00\x00\x00\x00\x00\x00:\x00\x00\x00\x00\x00\x00\x00;\x00\x00\x00\x00\x00\x00\x00<\x00\x00\x00\x00\x00\x00\x00=\x00\x00\x00\x00\x00\x00\x00>\x00\x00\x00\x00\x00\x00\x00?\x00\x00\x00\x00\x00\x00\x00@\x00\x00\x00\x00\x00\x00\x00A\x00\x00\x00\x00\x00\x00\x00B\x00\x00\x00\x00\x00\x00\x00C\x00\x00\x00\x00\x00\x00\x00D\x00\x00\x00\x00\x00\x00\x00E\x00\x00\x00\x00\x00\x00\x00F\x00\x00\x00\x00\x00\x00\x00G\x00\x00\x00\x00\x00\x00\x00H\x00\x00\x00\x00\x00\x00\x00I\x00\x00\x00\x00\x00\x00\x00J\x00\x00\x00\x00\x00\x00\x00K\x00\x00\x00\x00\x00\x00\x00L\x00\x00\x00\x00\x00\x00\x00M\x00\x00\x00\x00\x00\x00\x00N\x00\x00\x00\x00\x00\x00\x00O\x00\x00\x00\x00\x00\x00\x00P\x00\x00\x00\x00\x00\x00\x00Q\x00\x00\x00\x00\x00\x00\x00R\x00\x00\x00\x00\x00\x00\x00S\x00\x00\x00\x00\x00\x00\x00T\x00\x00\x00\x00\x00\x00\x00U\x00\x00\x00\x00\x00\x00\x00V\x00\x00\x00\x00\x00\x00\x00W\x00\x00\x00\x00\x00\x00\x00X\x00\x00\x00\x00\x00\x00\x00Y\x00\x00\x00\x00\x00\x00\x00Z\x00\x00\x00\x00\x00\x00\x00[\x00\x00\x00\x00\x00\x00\x00\\\x00\x00\x00\x00\x00\x00\x00]\x00\x00\x00\x00\x00\x00\x00^\x00\x00\x00\x00\x00\x00\x00_\x00\x00\x00\x00\x00\x00\x00`\x00\x00\x00\x00\x00\x00\x00a\x00\x00\x00\x00\x00\x00\x00b\x00\x00\x00\x00\x00\x00\x00c\x00\x00\x00\x00\x00\x00\x00d\x00\x00\x00\x00\x00\x00\x00e\x00\x00\x00\x00\x00\x00\x00f\x00\x00\x00\x00\x00\x00\x00g\x00\x00\x00\x00\x00\x00\x00h\x00\x00\x00\x00\x00\x00\x00i\x00\x00\x00\x00\x00\x00\x00j\x00\x00\x00\x00\x00\x00\x00k\x00\x00\x00\x00\x00\x00\x00l\x00\x00\x00\x00\x00\x00\x00m\x00\x00\x00\x00\x00\x00\x00n\x00\x00\x00\x00\x00\x00\x00o\x00\x00\x00\x00\x00\x00\x00p\x00\x00\x00\x00\x00\x00\x00q\x00\x00\x00\x00\x00\x00\x00r\x00\x00\x00\x00\x00\x00\x00s\x00\x00\x00\x00\x00\x00\x00t\x00\x00\x00\x00\x00\x00\x00u\x00\x00\x00\x00\x00\x00\x00v\x00\x00\x00\x00\x00\x00\x00w\x00\x00\x00\x00\x00\x00\x00x\x00\x00\x00\x00\x00\x00\x00y\x00\x00\x00\x00\x00\x00\x00z\x00\x00\x00\x00\x00\x00\x00{\x00\x00\x00\x00\x00\x00\x00|\x00\x00\x00\x00\x00\x00\x00}\x00\x00\x00\x00\x00\x00\x00~\x00\x00\x00\x00\x00\x00\x00\x7f\x00\x00\x00\x00\x00\x00\x00\x80\x00\x00\x00\x00\x00\x00\x00\x81\x00\x00\x00\x00\x00\x00\x00\x82\x00\x00\x00\x00\x00\x00\x00\x83\x00\x00\x00\x00\x00\x00\x00\x84\x00\x00\x00\x00\x00\x00\x00\x85\x00\x00\x00\x00\x00\x00\x00\x86\x00\x00\x00\x00\x00\x00\x00\x87\x00\x00\x00\x00\x00\x00\x00\x88\x00\x00\x00\x00\x00\x00\x00\x89\x00\x00\x00\x00\x00\x00\x00\x8a\x00\x00\x00\x00\x00\x00\x00\x8b\x00\x00\x00\x00\x00\x00\x00\x8c\x00\x00\x00\x00\x00\x00\x00\x8d\x00\x00\x00\x00\x00\x00\x00\x8e\x00\x00\x00\x00\x00\x00\x00\x8f\x00\x00\x00\x00\x00\x00\x00\x90\x00\x00\x00\x00\x00\x00\x00\x91\x00\x00\x00\x00\x00\x00\x00\x92\x00\x00\x00\x00\x00\x00\x00\x93\x00\x00\x00\x00\x00\x00\x00\x94\x00\x00\x00\x00\x00\x00\x00\x95\x00\x00\x00\x00\x00\x00\x00\x96\x00\x00\x00\x00\x00\x00\x00\x97\x00\x00\x00\x00\x00\x00\x00\x98\x00\x00\x00\x00\x00\x00\x00\x99\x00\x00\x00\x00\x00\x00\x00\x9a\x00\x00\x00\x00\x00\x00\x00\x9b\x00\x00\x00\x00\x00\x00\x00\x9c\x00\x00\x00\x00\x00\x00\x00\x9d\x00\x00\x00\x00\x00\x00\x00\x9e\x00\x00\x00\x00\x00\x00\x00\x9f\x00\x00\x00\x00\x00\x00\x00\xa0\x00\x00\x00\x00\x00\x00\x00\xa1\x00\x00\x00\x00\x00\x00\x00\xa2\x00\x00\x00\x00\x00\x00\x00\xa3\x00\x00\x00\x00\x00\x00\x00\xa4\x00\x00\x00\x00\x00\x00\x00\xa5\x00\x00\x00\x00\x00\x00\x00\xa6\x00\x00\x00\x00\x00\x00\x00\xa7\x00\x00\x00\x00\x00\x00\x00\xa8\x00\x00\x00\x00\x00\x00\x00\xa9\x00\x00\x00\x00\x00\x00\x00\xaa\x00\x00\x00\x00\x00\x00\x00\xab\x00\x00\x00\x00\x00\x00\x00\xac\x00\x00\x00\x00\x00\x00\x00\xad\x00\x00\x00\x00\x00\x00\x00\xae\x00\x00\x00\x00\x00\x00\x00\xaf\x00\x00\x00\x00\x00\x00\x00\xb0\x00\x00\x00\x00\x00\x00\x00\xb1\x00\x00\x00\x00\x00\x00\x00\xb2\x00\x00\x00\x00\x00\x00\x00\xb3\x00\x00\x00\x00\x00\x00\x00\xb4\x00\x00\x00\x00\x00\x00\x00\xb5\x00\x00\x00\x00\x00\x00\x00\xb6\x00\x00\x00\x00\x00\x00\x00\xb7\x00\x00\x00\x00\x00\x00\x00\xb8\x00\x00\x00\x00\x00\x00\x00\xb9\x00\x00\x00\x00\x00\x00\x00\xba\x00\x00\x00\x00\x00\x00\x00\xbb\x00\x00\x00\x00\x00\x00\x00\xbc\x00\x00\x00\x00\x00\x00\x00\xbd\x00\x00\x00\x00\x00\x00\x00\xbe\x00\x00\x00\x00\x00\x00\x00\xbf\x00\x00\x00\x00\x00\x00\x00\xc0\x00\x00\x00\x00\x00\x00\x00\xc1\x00\x00\x00\x00\x00\x00\x00\xc2\x00\x00\x00\x00\x00\x00\x00\xc3\x00\x00\x00\x00\x00\x00\x00\xc4\x00\x00\x00\x00\x00\x00\x00\xc5\x00\x00\x00\x00\x00\x00\x00\xc6\x00\x00\x00\x00\x00\x00\x00\xc7\x00\x00\x00\x00\x00\x00\x00\xc8\x00\x00\x00\x00\x00\x00\x00\xc9\x00\x00\x00\x00\x00\x00\x00\xca\x00\x00\x00\x00\x00\x00\x00\xcb\x00\x00\x00\x00\x00\x00\x00\xcc\x00\x00\x00\x00\x00\x00\x00\xcd\x00\x00\x00\x00\x00\x00\x00\xce\x00\x00\x00\x00\x00\x00\x00\xcf\x00\x00\x00\x00\x00\x00\x00\xd0\x00\x00\x00\x00\x00\x00\x00\xd1\x00\x00\x00\x00\x00\x00\x00\xd2\x00\x00\x00\x00\x00\x00\x00\xd3\x00\x00\x00\x00\x00\x00\x00\xd4\x00\x00\x00\x00\x00\x00\x00\xd5\x00\x00\x00\x00\x00\x00\x00\xd6\x00\x00\x00\x00\x00\x00\x00\xd7\x00\x00\x00\x00\x00\x00\x00\xd8\x00\x00\x00\x00\x00\x00\x00\xd9\x00\x00\x00\x00\x00\x00\x00\xda\x00\x00\x00\x00\x00\x00\x00\xdb\x00\x00\x00\x00\x00\x00\x00\xdc\x00\x00\x00\x00\x00\x00\x00\xdd\x00\x00\x00\x00\x00\x00\x00\xde\x00\x00\x00\x00\x00\x00\x00\xdf\x00\x00\x00\x00\x00\x00\x00\xe0\x00\x00\x00\x00\x00\x00\x00\xe1\x00\x00\x00\x00\x00\x00\x00\xe2\x00\x00\x00\x00\x00\x00\x00\xe3\x00\x00\x00\x00\x00\x00\x00\xe4\x00\x00\x00\x00\x00\x00\x00\xe5\x00\x00\x00\x00\x00\x00\x00\xe6\x00\x00\x00\x00\x00\x00\x00\xe7\x00\x00\x00\x00\x00\x00\x00\xe8\x00\x00\x00\x00\x00\x00\x00\xe9\x00\x00\x00\x00\x00\x00\x00\xea\x00\x00\x00\x00\x00\x00\x00\xeb\x00\x00\x00\x00\x00\x00\x00\xec\x00\x00\x00\x00\x00\x00\x00\xed\x00\x00\x00\x00\x00\x00\x00\xee\x00\x00\x00\x00\x00\x00\x00\xef\x00\x00\x00\x00\x00\x00\x00\xf0\x00\x00\x00\x00\x00\x00\x00\xf1\x00\x00\x00\x00\x00\x00\x00\xf2\x00\x00\x00\x00\x00\x00\x00\xf3\x00\x00\x00\x00\x00\x00\x00\xf4\x00\x00\x00\x00\x00\x00\x00\xf5\x00\x00\x00\x00\x00\x00\x00\xf6\x00\x00\x00\x00\x00\x00\x00\xf7\x00\x00\x00\x00\x00\x00\x00'
p392
tp393
bsg386
g314
sasstp394
bsb.