ccopy_reg
_reconstructor
p0
(cpandas.core.frame
DataFrame
p1
c__builtin__
object
p2
Ntp3
Rp4
(dp5
S'_metadata'
p6
(lp7
sS'_typ'
p8
S'dataframe'
p9
sS'_data'
p10
g0
(cpandas.core.internals
BlockManager
p11
g2
Ntp12
Rp13
((lp14
cpandas.core.indexes.base
_new_Index
p15
(cpandas.core.indexes.base
Index
p16
(dp17
S'data'
p18
cnumpy.core.multiarray
_reconstruct
p19
(cnumpy
ndarray
p20
(I0
tp21
S'b'
p22
tp23
Rp24
(I1
(I248
tp25
cnumpy
dtype
p26
(S'O8'
p27
I0
I1
tp28
Rp29
(I3
S'|'
p30
NNNI-1
I-1
I63
tp31
bI00
(lp32
S'year'
p33
aS'type'
p34
aS'procOriginal'
p35
aS'proc'
p36
aS'proc_s0'
p37
aS'cat'
p38
aS'inputWSFile'
p39
aS'nominalDataName'
p40
aS'modelWSFile'
p41
aS'model'
p42
aS'rate'
p43
aS'nominal_yield'
p44
aS'sumw2'
p45
aS'nominal_yield_COWCorr'
p46
aS'weight_Pileup_up_yield'
p47
aS'weight_Pileup_down_yield'
p48
aS'weight_TriggerSF_up_yield'
p49
aS'weight_TriggerSF_down_yield'
p50
aS'weight_ElectronVetoSF_up_yield'
p51
aS'weight_ElectronVetoSF_down_yield'
p52
aS'weight_PreselSF_up_yield'
p53
aS'weight_PreselSF_down_yield'
p54
aS'energyErrShift_up_yield'
p55
aS'energyErrShift_down_yield'
p56
aS'weight_LHEScal_0_yield'
p57
aS'weight_LHEScal_0_yield_COWCorr'
p58
aS'weight_LHEScal_1_yield'
p59
aS'weight_LHEScal_1_yield_COWCorr'
p60
aS'weight_LHEScal_3_yield'
p61
aS'weight_LHEScal_3_yield_COWCorr'
p62
aS'weight_LHEScal_5_yield'
p63
aS'weight_LHEScal_5_yield_COWCorr'
p64
aS'weight_LHEScal_7_yield'
p65
aS'weight_LHEScal_7_yield_COWCorr'
p66
aS'weight_LHEScal_8_yield'
p67
aS'weight_LHEScal_8_yield_COWCorr'
p68
aS'weight_AlphaS_up_yield'
p69
aS'weight_AlphaS_down_yield'
p70
aS'weight_AlphaS_up_yield_COWCorr'
p71
aS'weight_AlphaS_down_yield_COWCorr'
p72
aS'weight_PS_ISR_up_yield'
p73
aS'weight_PS_ISR_down_yield'
p74
aS'weight_PS_ISR_up_yield_COWCorr'
p75
aS'weight_PS_ISR_down_yield_COWCorr'
p76
aS'weight_PS_FSR_up_yield'
p77
aS'weight_PS_FSR_down_yield'
p78
aS'weight_PS_FSR_up_yield_COWCorr'
p79
aS'weight_PS_FSR_down_yield_COWCorr'
p80
aS'weight_LHEPd_1_yield'
p81
aS'weight_LHEPd_1_yield_COWCorr'
p82
aS'weight_LHEPd_2_yield'
p83
aS'weight_LHEPd_2_yield_COWCorr'
p84
aS'weight_LHEPd_3_yield'
p85
aS'weight_LHEPd_3_yield_COWCorr'
p86
aS'weight_LHEPd_4_yield'
p87
aS'weight_LHEPd_4_yield_COWCorr'
p88
aS'weight_LHEPd_5_yield'
p89
aS'weight_LHEPd_5_yield_COWCorr'
p90
aS'weight_LHEPd_6_yield'
p91
aS'weight_LHEPd_6_yield_COWCorr'
p92
aS'weight_LHEPd_7_yield'
p93
aS'weight_LHEPd_7_yield_COWCorr'
p94
aS'weight_LHEPd_8_yield'
p95
aS'weight_LHEPd_8_yield_COWCorr'
p96
aS'weight_LHEPd_9_yield'
p97
aS'weight_LHEPd_9_yield_COWCorr'
p98
aS'weight_LHEPd_10_yield'
p99
aS'weight_LHEPd_10_yield_COWCorr'
p100
aS'weight_LHEPd_11_yield'
p101
aS'weight_LHEPd_11_yield_COWCorr'
p102
aS'weight_LHEPd_12_yield'
p103
aS'weight_LHEPd_12_yield_COWCorr'
p104
aS'weight_LHEPd_13_yield'
p105
aS'weight_LHEPd_13_yield_COWCorr'
p106
aS'weight_LHEPd_14_yield'
p107
aS'weight_LHEPd_14_yield_COWCorr'
p108
aS'weight_LHEPd_15_yield'
p109
aS'weight_LHEPd_15_yield_COWCorr'
p110
aS'weight_LHEPd_16_yield'
p111
aS'weight_LHEPd_16_yield_COWCorr'
p112
aS'weight_LHEPd_17_yield'
p113
aS'weight_LHEPd_17_yield_COWCorr'
p114
aS'weight_LHEPd_18_yield'
p115
aS'weight_LHEPd_18_yield_COWCorr'
p116
aS'weight_LHEPd_19_yield'
p117
aS'weight_LHEPd_19_yield_COWCorr'
p118
aS'weight_LHEPd_20_yield'
p119
aS'weight_LHEPd_20_yield_COWCorr'
p120
aS'weight_LHEPd_21_yield'
p121
aS'weight_LHEPd_21_yield_COWCorr'
p122
aS'weight_LHEPd_22_yield'
p123
aS'weight_LHEPd_22_yield_COWCorr'
p124
aS'weight_LHEPd_23_yield'
p125
aS'weight_LHEPd_23_yield_COWCorr'
p126
aS'weight_LHEPd_24_yield'
p127
aS'weight_LHEPd_24_yield_COWCorr'
p128
aS'weight_LHEPd_25_yield'
p129
aS'weight_LHEPd_25_yield_COWCorr'
p130
aS'weight_LHEPd_26_yield'
p131
aS'weight_LHEPd_26_yield_COWCorr'
p132
aS'weight_LHEPd_27_yield'
p133
aS'weight_LHEPd_27_yield_COWCorr'
p134
aS'weight_LHEPd_28_yield'
p135
aS'weight_LHEPd_28_yield_COWCorr'
p136
aS'weight_LHEPd_29_yield'
p137
aS'weight_LHEPd_29_yield_COWCorr'
p138
aS'weight_LHEPd_30_yield'
p139
aS'weight_LHEPd_30_yield_COWCorr'
p140
aS'weight_LHEPd_31_yield'
p141
aS'weight_LHEPd_31_yield_COWCorr'
p142
aS'weight_LHEPd_32_yield'
p143
aS'weight_LHEPd_32_yield_COWCorr'
p144
aS'weight_LHEPd_33_yield'
p145
aS'weight_LHEPd_33_yield_COWCorr'
p146
aS'weight_LHEPd_34_yield'
p147
aS'weight_LHEPd_34_yield_COWCorr'
p148
aS'weight_LHEPd_35_yield'
p149
aS'weight_LHEPd_35_yield_COWCorr'
p150
aS'weight_LHEPd_36_yield'
p151
aS'weight_LHEPd_36_yield_COWCorr'
p152
aS'weight_LHEPd_37_yield'
p153
aS'weight_LHEPd_37_yield_COWCorr'
p154
aS'weight_LHEPd_38_yield'
p155
aS'weight_LHEPd_38_yield_COWCorr'
p156
aS'weight_LHEPd_39_yield'
p157
aS'weight_LHEPd_39_yield_COWCorr'
p158
aS'weight_LHEPd_40_yield'
p159
aS'weight_LHEPd_40_yield_COWCorr'
p160
aS'weight_LHEPd_41_yield'
p161
aS'weight_LHEPd_41_yield_COWCorr'
p162
aS'weight_LHEPd_42_yield'
p163
aS'weight_LHEPd_42_yield_COWCorr'
p164
aS'weight_LHEPd_43_yield'
p165
aS'weight_LHEPd_43_yield_COWCorr'
p166
aS'weight_LHEPd_44_yield'
p167
aS'weight_LHEPd_44_yield_COWCorr'
p168
aS'weight_LHEPd_45_yield'
p169
aS'weight_LHEPd_45_yield_COWCorr'
p170
aS'weight_LHEPd_46_yield'
p171
aS'weight_LHEPd_46_yield_COWCorr'
p172
aS'weight_LHEPd_47_yield'
p173
aS'weight_LHEPd_47_yield_COWCorr'
p174
aS'weight_LHEPd_48_yield'
p175
aS'weight_LHEPd_48_yield_COWCorr'
p176
aS'weight_LHEPd_49_yield'
p177
aS'weight_LHEPd_49_yield_COWCorr'
p178
aS'weight_LHEPd_50_yield'
p179
aS'weight_LHEPd_50_yield_COWCorr'
p180
aS'weight_LHEPd_51_yield'
p181
aS'weight_LHEPd_51_yield_COWCorr'
p182
aS'weight_LHEPd_52_yield'
p183
aS'weight_LHEPd_52_yield_COWCorr'
p184
aS'weight_LHEPd_53_yield'
p185
aS'weight_LHEPd_53_yield_COWCorr'
p186
aS'weight_LHEPd_54_yield'
p187
aS'weight_LHEPd_54_yield_COWCorr'
p188
aS'weight_LHEPd_55_yield'
p189
aS'weight_LHEPd_55_yield_COWCorr'
p190
aS'weight_LHEPd_56_yield'
p191
aS'weight_LHEPd_56_yield_COWCorr'
p192
aS'weight_LHEPd_57_yield'
p193
aS'weight_LHEPd_57_yield_COWCorr'
p194
aS'weight_LHEPd_58_yield'
p195
aS'weight_LHEPd_58_yield_COWCorr'
p196
aS'weight_LHEPd_59_yield'
p197
aS'weight_LHEPd_59_yield_COWCorr'
p198
aS'weight_LHEPd_60_yield'
p199
aS'weight_LHEPd_60_yield_COWCorr'
p200
aS'weight_LHEPd_61_yield'
p201
aS'weight_LHEPd_61_yield_COWCorr'
p202
aS'weight_LHEPd_62_yield'
p203
aS'weight_LHEPd_62_yield_COWCorr'
p204
aS'weight_LHEPd_63_yield'
p205
aS'weight_LHEPd_63_yield_COWCorr'
p206
aS'weight_LHEPd_64_yield'
p207
aS'weight_LHEPd_64_yield_COWCorr'
p208
aS'weight_LHEPd_65_yield'
p209
aS'weight_LHEPd_65_yield_COWCorr'
p210
aS'weight_LHEPd_66_yield'
p211
aS'weight_LHEPd_66_yield_COWCorr'
p212
aS'weight_LHEPd_67_yield'
p213
aS'weight_LHEPd_67_yield_COWCorr'
p214
aS'weight_LHEPd_68_yield'
p215
aS'weight_LHEPd_68_yield_COWCorr'
p216
aS'weight_LHEPd_69_yield'
p217
aS'weight_LHEPd_69_yield_COWCorr'
p218
aS'weight_LHEPd_70_yield'
p219
aS'weight_LHEPd_70_yield_COWCorr'
p220
aS'weight_LHEPd_71_yield'
p221
aS'weight_LHEPd_71_yield_COWCorr'
p222
aS'weight_LHEPd_72_yield'
p223
aS'weight_LHEPd_72_yield_COWCorr'
p224
aS'weight_LHEPd_73_yield'
p225
aS'weight_LHEPd_73_yield_COWCorr'
p226
aS'weight_LHEPd_74_yield'
p227
aS'weight_LHEPd_74_yield_COWCorr'
p228
aS'weight_LHEPd_75_yield'
p229
aS'weight_LHEPd_75_yield_COWCorr'
p230
aS'weight_LHEPd_76_yield'
p231
aS'weight_LHEPd_76_yield_COWCorr'
p232
aS'weight_LHEPd_77_yield'
p233
aS'weight_LHEPd_77_yield_COWCorr'
p234
aS'weight_LHEPd_78_yield'
p235
aS'weight_LHEPd_78_yield_COWCorr'
p236
aS'weight_LHEPd_79_yield'
p237
aS'weight_LHEPd_79_yield_COWCorr'
p238
aS'weight_LHEPd_80_yield'
p239
aS'weight_LHEPd_80_yield_COWCorr'
p240
aS'weight_LHEPd_81_yield'
p241
aS'weight_LHEPd_81_yield_COWCorr'
p242
aS'weight_LHEPd_82_yield'
p243
aS'weight_LHEPd_82_yield_COWCorr'
p244
aS'weight_LHEPd_83_yield'
p245
aS'weight_LHEPd_83_yield_COWCorr'
p246
aS'weight_LHEPd_84_yield'
p247
aS'weight_LHEPd_84_yield_COWCorr'
p248
aS'weight_LHEPd_85_yield'
p249
aS'weight_LHEPd_85_yield_COWCorr'
p250
aS'weight_LHEPd_86_yield'
p251
aS'weight_LHEPd_86_yield_COWCorr'
p252
aS'weight_LHEPd_87_yield'
p253
aS'weight_LHEPd_87_yield_COWCorr'
p254
aS'weight_LHEPd_88_yield'
p255
aS'weight_LHEPd_88_yield_COWCorr'
p256
aS'weight_LHEPd_89_yield'
p257
aS'weight_LHEPd_89_yield_COWCorr'
p258
aS'weight_LHEPd_90_yield'
p259
aS'weight_LHEPd_90_yield_COWCorr'
p260
aS'weight_LHEPd_91_yield'
p261
aS'weight_LHEPd_91_yield_COWCorr'
p262
aS'weight_LHEPd_92_yield'
p263
aS'weight_LHEPd_92_yield_COWCorr'
p264
aS'weight_LHEPd_93_yield'
p265
aS'weight_LHEPd_93_yield_COWCorr'
p266
aS'weight_LHEPd_94_yield'
p267
aS'weight_LHEPd_94_yield_COWCorr'
p268
aS'weight_LHEPd_95_yield'
p269
aS'weight_LHEPd_95_yield_COWCorr'
p270
aS'weight_LHEPd_96_yield'
p271
aS'weight_LHEPd_96_yield_COWCorr'
p272
aS'weight_LHEPd_97_yield'
p273
aS'weight_LHEPd_97_yield_COWCorr'
p274
aS'weight_LHEPd_98_yield'
p275
aS'weight_LHEPd_98_yield_COWCorr'
p276
aS'weight_LHEPd_99_yield'
p277
aS'weight_LHEPd_99_yield_COWCorr'
p278
aS'weight_LHEPd_100_yield'
p279
aS'weight_LHEPd_100_yield_COWCorr'
p280
atp281
bsS'name'
p282
Nstp283
Rp284
ag15
(cpandas.core.indexes.numeric
Int64Index
p285
(dp286
g18
g19
(g20
(I0
tp287
g22
tp288
Rp289
(I1
(I6
tp290
g26
(S'i8'
p291
I0
I1
tp292
Rp293
(I3
S'<'
p294
NNNI-1
I-1
I0
tp295
bI00
S'\x00\x00\x00\x00\x00\x00\x00\x00\x01\x00\x00\x00\x00\x00\x00\x00\x02\x00\x00\x00\x00\x00\x00\x00\x03\x00\x00\x00\x00\x00\x00\x00\x04\x00\x00\x00\x00\x00\x00\x00\x05\x00\x00\x00\x00\x00\x00\x00'
p296
tp297
bsg282
Nstp298
Rp299
a(lp300
g19
(g20
(I0
tp301
g22
tp302
Rp303
(I1
(I1
I6
tp304
g26
(S'f8'
p305
I0
I1
tp306
Rp307
(I3
S'<'
p308
NNNI-1
I-1
I0
tp309
bI00
S'\x00\x00\x00\x00\x00\xa4\xbf@\x00\x00\x00\x00\x00\xa4\xbf@\x00\x00\x00\x00\x00^\xda@\x00\x00\x00\x00\x00^\xda@\x00\x00\x00\x00\x00\x00\xf0?\x00\x00\x00\x00\x00\x00\xf0\xbf'
p310
tp311
bag19
(g20
(I0
tp312
g22
tp313
Rp314
(I1
(I247
I6
tp315
g29
I00
(lp316
S'2022preEE'
p317
ag317
aS'2022postEE'
p318
ag318
aS'merged'
p319
ag319
aS'sig'
p320
ag320
ag320
ag320
aS'bkg'
p321
ag18
aS'sm_in'
p322
aS'sm_out'
p323
ag322
ag323
aS'bkg_mass'
p324
aS'data_obs'
p325
aS'sm_in_2022preEE_hgg'
p326
aS'sm_out_2022preEE_hgg'
p327
aS'sm_in_2022postEE_hgg'
p328
aS'sm_out_2022postEE_hgg'
p329
ag324
ag325
aS'sm'
p330
aS'sm'
p331
aS'sm'
p332
aS'sm'
p333
aS'-'
p334
ag334
aS'worst_resolution'
p335
ag335
ag335
ag335
ag335
ag335
aS'../input_output_2022preEE/ws_signal/output_SM_M125_13TeV_amcatnloFXFX_pythia8_sm_in.root'
p336
aS'../input_output_2022preEE/ws_signal/output_SM_M125_13TeV_amcatnloFXFX_pythia8_sm_out.root'
p337
aS'../input_output_2022postEE/ws_signal/output_SM_M125_13TeV_amcatnloFXFX_pythia8_sm_in.root'
p338
aS'../input_output_2022postEE/ws_signal/output_SM_M125_13TeV_amcatnloFXFX_pythia8_sm_out.root'
p339
ag334
ag334
aS'sm_in_125_13TeV_worst_resolution'
p340
aS'sm_out_125_13TeV_worst_resolution'
p341
aS'sm_in_125_13TeV_worst_resolution'
p342
aS'sm_out_125_13TeV_worst_resolution'
p343
ag334
ag334
aS'./Models/signal/CMS-HGG_sigfit_packaged_worst_resolution.root'
p344
aS'./Models/signal/CMS-HGG_sigfit_packaged_worst_resolution.root'
p345
aS'./Models/signal/CMS-HGG_sigfit_packaged_worst_resolution.root'
p346
aS'./Models/signal/CMS-HGG_sigfit_packaged_worst_resolution.root'
p347
aS'./Models/background/CMS-HGG_multipdf_worst_resolution.root'
p348
ag348
aS'wsig_13TeV:hggpdfsmrel_sm_in_2022preEE_worst_resolution_13TeV'
p349
aS'wsig_13TeV:hggpdfsmrel_sm_out_2022preEE_worst_resolution_13TeV'
p350
aS'wsig_13TeV:hggpdfsmrel_sm_in_2022postEE_worst_resolution_13TeV'
p351
aS'wsig_13TeV:hggpdfsmrel_sm_out_2022postEE_worst_resolution_13TeV'
p352
aS'multipdf:CMS_hgg_worst_resolution_13TeV_bkgshape'
p353
aS'multipdf:roohist_data_mass_worst_resolution'
p354
aF8.00825845545716
aF0.15810625334691983
aF10.136547758245502
aF0.19538584267512438
ag334
ag334
aF0.0017008866798755137
aF3.325833289032905e-05
aF0.001944582587830407
aF3.612791377558029e-05
ag334
ag334
aF8.00825845545716
aF0.15810625334691983
aF10.136547758245502
aF0.19538584267512438
ag334
ag334
aF8.024434727169615
aF0.1601994356340487
aF10.149818945368999
aF0.19545839833864712
ag334
ag334
aF7.992905054626113
aF0.1554620234657592
aF10.120995659414172
aF0.19516422285119372
ag334
ag334
aF8.02726020556796
aF0.15847275836313954
aF10.160077345930658
aF0.1958479623430202
ag334
ag334
aF7.9892584183371955
aF0.1577396034279035
aF10.113018206671986
aF0.19492363000151205
ag334
ag334
aF8.05486704024484
aF0.15905347244123938
aF10.18294588191783
aF0.1962868586550201
ag334
ag334
aF7.961782771427389
aF0.15716181576362148
aF10.09025316743323
aF0.19448680841016863
ag334
ag334
aF8.123250999357555
aF0.16001236518018103
aF10.276392905610276
aF0.19779463315902546
ag334
ag334
aF7.893101667580214
aF0.15619702882718722
aF9.996611113018545
aF0.19297503119620762
ag334
ag334
aF8.491785022107456
aF0.16437956241986612
aF10.566415187218322
aF0.19891892870758707
ag334
ag334
aF7.528248487513741
aF0.1507962011056038
aF9.697872961154658
aF0.19204029002691136
ag334
ag334
aF9.108158234053175
aF0.17777834217294833
aF11.4728921088424
aF0.226134779029156
ag334
ag334
aF9.108158234053175
aF0.17777834217294833
aF11.4728921088424
aF0.226134779029156
ag334
ag334
aF9.420654670078303
aF0.1848140640276515
aF11.897140164741542
aF0.2307513507780603
ag334
ag334
aF9.420654670078303
aF0.1848140640276515
aF11.897140164741542
aF0.2307513507780603
ag334
ag334
aF7.750242260173672
aF0.15274844088501421
aF9.793193355021032
aF0.19119346626319034
ag334
ag334
aF7.750242260173672
aF0.15274844088501421
aF9.793193355021032
aF0.19119346626319034
ag334
ag334
aF8.25077208132113
aF0.16323491723106157
aF10.456105412746824
aF0.19954227128793772
ag334
ag334
aF8.25077208132113
aF0.16323491723106157
aF10.456105412746824
aF0.19954227128793772
ag334
ag334
aF6.84875609783679
aF0.13569947537758337
aF8.68113124034731
aF0.16666698228374946
ag334
ag334
aF6.84875609783679
aF0.13569947537758337
aF8.68113124034731
aF0.16666698228374946
ag334
ag334
aF7.043493357102383
aF0.13959851421014272
aF8.935415407765218
aF0.170116595273517
ag334
ag334
aF7.043493357102383
aF0.13959851421014272
aF8.935415407765218
aF0.170116595273517
ag334
ag334
aF8.27999196437365
aF0.1637517028173551
aF10.478747857686132
aF0.2025533505993133
ag334
ag334
aF7.721720585037553
aF0.1523765402632218
aF9.776460353682811
aF0.18788608651432015
ag334
ag334
aF8.27999196437365
aF0.1637517028173551
aF10.478747857686132
aF0.2025533505993133
ag334
ag334
aF7.721720585037553
aF0.1523765402632218
aF9.776460353682811
aF0.18788608651432015
ag334
ag334
aF8.128264757354879
aF0.15973232727737455
aF10.280597676499916
aF0.1980384105036764
ag334
ag334
aF7.855671692251838
aF0.1562175092115662
aF9.956868350828909
aF0.1919945257750596
ag334
ag334
aF8.128264757354879
aF0.15973232727737455
aF10.280597676499916
aF0.1980384105036764
ag334
ag334
aF7.855671692251838
aF0.1562175092115662
aF9.956868350828909
aF0.1919945257750596
ag334
ag334
aF8.019003011089291
aF0.15767763059726725
aF10.157009653301468
aF0.19261121397814143
ag334
ag334
aF7.981151354135042
aF0.16048711989138983
aF10.121219874349796
aF0.20108972076069556
ag334
ag334
aF8.019003011089291
aF0.15767763059726725
aF10.157009653301468
aF0.19261121397814143
ag334
ag334
aF7.981151354135042
aF0.16048711989138983
aF10.121219874349796
aF0.20108972076069556
ag334
ag334
aF8.01925742482323
aF0.1583039445833751
aF10.150225073798467
aF0.19572165879311057
ag334
ag334
aF8.01925742482323
aF0.1583039445833751
aF10.150225073798467
aF0.19572165879311057
ag334
ag334
aF7.994808124674765
aF0.15778217373740794
aF10.119273294949727
aF0.19500581230633918
ag334
ag334
aF7.994808124674765
aF0.15778217373740794
aF10.119273294949727
aF0.19500581230633918
ag334
ag334
aF8.02027853752379
aF0.15832413101343806
aF10.15178766864457
aF0.19563579463687836
ag334
ag334
aF8.02027853752379
aF0.15832413101343806
aF10.15178766864457
aF0.19563579463687836
ag334
ag334
aF8.021896880556412
aF0.15835372010724064
aF10.154164529379715
aF0.19570192355798763
ag334
ag334
aF8.021896880556412
aF0.15835372010724064
aF10.154164529379715
aF0.19570192355798763
ag334
ag334
aF8.020146831846423
aF0.1583176812175016
aF10.152800122562798
aF0.19565832846166087
ag334
ag334
aF8.020146831846423
aF0.1583176812175016
aF10.152800122562798
aF0.19565832846166087
ag334
ag334
aF8.017747529690336
aF0.1582674769878004
aF10.148294608272927
aF0.19560221300712413
ag334
ag334
aF8.017747529690336
aF0.1582674769878004
aF10.148294608272927
aF0.19560221300712413
ag334
ag334
aF8.0290934523976
aF0.15838918626262488
aF10.164640328988916
aF0.19580224422994608
ag334
ag334
aF8.0290934523976
aF0.15838918626262488
aF10.164640328988916
aF0.19580224422994608
ag334
ag334
aF8.031450022979078
aF0.15840860585075184
aF10.16761819375967
aF0.19585707543813374
ag334
ag334
aF8.031450022979078
aF0.15840860585075184
aF10.16761819375967
aF0.19585707543813374
ag334
ag334
aF8.005051542401024
aF0.1580848053973824
aF10.131712582639231
aF0.19530277472598806
ag334
ag334
aF8.005051542401024
aF0.1580848053973824
aF10.131712582639231
aF0.19530277472598806
ag334
ag334
aF8.013442942670451
aF0.15822142003581643
aF10.142922505525208
aF0.19565646243945323
ag334
ag334
aF8.013442942670451
aF0.15822142003581643
aF10.142922505525208
aF0.19565646243945323
ag334
ag334
aF7.99144431466015
aF0.15788998553819672
aF10.112867759338863
aF0.19500391568969339
ag334
ag334
aF7.99144431466015
aF0.15788998553819672
aF10.112867759338863
aF0.19500391568969339
ag334
ag334
aF8.015152378059351
aF0.1582284762899193
aF10.146131057213504
aF0.19556968519169002
ag334
ag334
aF8.015152378059351
aF0.1582284762899193
aF10.146131057213504
aF0.19556968519169002
ag334
ag334
aF8.00358081196764
aF0.15810077906052122
aF10.130034852666018
aF0.1952881557799506
ag334
ag334
aF8.00358081196764
aF0.15810077906052122
aF10.130034852666018
aF0.1952881557799506
ag334
ag334
aF8.005219442079385
aF0.15806016248897078
aF10.132187774375401
aF0.1953821788984894
ag334
ag334
aF8.005219442079385
aF0.15806016248897078
aF10.132187774375401
aF0.1953821788984894
ag334
ag334
aF8.01380378024245
aF0.15828045369335436
aF10.142616638878051
aF0.19537796662522558
ag334
ag334
aF8.01380378024245
aF0.15828045369335436
aF10.142616638878051
aF0.19537796662522558
ag334
ag334
aF7.993245174761952
aF0.15790921412033457
aF10.116866965323421
aF0.19518610129262176
ag334
ag334
aF7.993245174761952
aF0.15790921412033457
aF10.116866965323421
aF0.19518610129262176
ag334
ag334
aF7.993775947355241
aF0.157895521061263
aF10.117336671945518
aF0.19493332759718265
ag334
ag334
aF7.993775947355241
aF0.157895521061263
aF10.117336671945518
aF0.19493332759718265
ag334
ag334
aF8.02034533315466
aF0.15818884856035736
aF10.152630228648972
aF0.19558716994238015
ag334
ag334
aF8.02034533315466
aF0.15818884856035736
aF10.152630228648972
aF0.19558716994238015
ag334
ag334
aF8.022806088374566
aF0.1583708027212672
aF10.155800297303639
aF0.19568396408989616
ag334
ag334
aF8.022806088374566
aF0.1583708027212672
aF10.155800297303639
aF0.19568396408989616
ag334
ag334
aF8.001558354623786
aF0.15794677153110662
aF10.127485635951508
aF0.19508454912426554
ag334
ag334
aF8.001558354623786
aF0.15794677153110662
aF10.127485635951508
aF0.19508454912426554
ag334
ag334
aF8.017624654721782
aF0.15818885678337238
aF10.149388871559697
aF0.19558164016201163
ag334
ag334
aF8.017624654721782
aF0.15818885678337238
aF10.149388871559697
aF0.19558164016201163
ag334
ag334
aF7.999860817449105
aF0.15797806332105835
aF10.12592067595563
aF0.19518356054096922
ag334
ag334
aF7.999860817449105
aF0.15797806332105835
aF10.12592067595563
aF0.19518356054096922
ag334
ag334
aF8.00768133205825
aF0.1580509090712711
aF10.135305538851206
aF0.19536872651452142
ag334
ag334
aF8.00768133205825
aF0.1580509090712711
aF10.135305538851206
aF0.19536872651452142
ag334
ag334
aF8.008889115844294
aF0.1580816245642502
aF10.137332017731023
aF0.19536126686213273
ag334
ag334
aF8.008889115844294
aF0.1580816245642502
aF10.137332017731023
aF0.19536126686213273
ag334
ag334
aF8.006729014179266
aF0.15805057075985957
aF10.134586706334195
aF0.19520833300458246
ag334
ag334
aF8.006729014179266
aF0.15805057075985957
aF10.134586706334195
aF0.19520833300458246
ag334
ag334
aF8.003162654812925
aF0.15802345694405745
aF10.13042856483254
aF0.19546921867404454
ag334
ag334
aF8.003162654812925
aF0.15802345694405745
aF10.13042856483254
aF0.19546921867404454
ag334
ag334
aF7.99669145630095
aF0.15790889025174648
aF10.121158315019478
aF0.195223266738711
ag334
ag334
aF7.99669145630095
aF0.15790889025174648
aF10.121158315019478
aF0.195223266738711
ag334
ag334
aF8.013775895940867
aF0.15826209727670043
aF10.144220786996867
aF0.1954341529534165
ag334
ag334
aF8.013775895940867
aF0.15826209727670043
aF10.144220786996867
aF0.1954341529534165
ag334
ag334
aF7.9940787246227645
aF0.15797412694966062
aF10.119184066859269
aF0.19487146265576272
ag334
ag334
aF7.9940787246227645
aF0.15797412694966062
aF10.119184066859269
aF0.19487146265576272
ag334
ag334
aF8.006390659126941
aF0.15800986759122296
aF10.133626349456271
aF0.1952451036568775
ag334
ag334
aF8.006390659126941
aF0.15800986759122296
aF10.133626349456271
aF0.1952451036568775
ag334
ag334
aF7.995491041398367
aF0.1579740639225376
aF10.121351259855969
aF0.19519853901539788
ag334
ag334
aF7.995491041398367
aF0.1579740639225376
aF10.121351259855969
aF0.19519853901539788
ag334
ag334
aF8.011106233879147
aF0.1581758091264284
aF10.140299116306398
aF0.1952518844139955
ag334
ag334
aF8.011106233879147
aF0.1581758091264284
aF10.140299116306398
aF0.1952518844139955
ag334
ag334
aF8.001383426236663
aF0.157924179756547
aF10.127352265311815
aF0.19481871554165633
ag334
ag334
aF8.001383426236663
aF0.157924179756547
aF10.127352265311815
aF0.19481871554165633
ag334
ag334
aF8.002476085366453
aF0.15803261552782785
aF10.130372261453271
aF0.19528909794807353
ag334
ag334
aF8.002476085366453
aF0.15803261552782785
aF10.130372261453271
aF0.19528909794807353
ag334
ag334
aF8.00824989491164
aF0.158118277397272
aF10.137338290442296
aF0.19563233149774087
ag334
ag334
aF8.00824989491164
aF0.158118277397272
aF10.137338290442296
aF0.19563233149774087
ag334
ag334
aF8.016627242845573
aF0.1581942153403317
aF10.145753207917863
aF0.19548797364970463
ag334
ag334
aF8.016627242845573
aF0.1581942153403317
aF10.145753207917863
aF0.19548797364970463
ag334
ag334
aF8.007888954849317
aF0.15814610871880874
aF10.136610089906863
aF0.1954220671308224
ag334
ag334
aF8.007888954849317
aF0.15814610871880874
aF10.136610089906863
aF0.1954220671308224
ag334
ag334
aF8.008605363100198
aF0.15808229804859864
aF10.137096991603967
aF0.1953458336236171
ag334
ag334
aF8.008605363100198
aF0.15808229804859864
aF10.137096991603967
aF0.1953458336236171
ag334
ag334
aF8.006601578497808
aF0.1581282645077956
aF10.135560324714717
aF0.19537751479922502
ag334
ag334
aF8.006601578497808
aF0.1581282645077956
aF10.135560324714717
aF0.19537751479922502
ag334
ag334
aF8.005452271895521
aF0.15806449297553607
aF10.133359446377604
aF0.19526953086120294
ag334
ag334
aF8.005452271895521
aF0.15806449297553607
aF10.133359446377604
aF0.19526953086120294
ag334
ag334
aF8.00998885785832
aF0.15808245680521144
aF10.138398414147293
aF0.1952682523432672
ag334
ag334
aF8.00998885785832
aF0.15808245680521144
aF10.138398414147293
aF0.1952682523432672
ag334
ag334
aF8.008877049769783
aF0.1581278996235836
aF10.137523354091075
aF0.19536183061542003
ag334
ag334
aF8.008877049769783
aF0.1581278996235836
aF10.137523354091075
aF0.19536183061542003
ag334
ag334
aF8.003952833059225
aF0.15800558191884476
aF10.131165440273586
aF0.1952206268343561
ag334
ag334
aF8.003952833059225
aF0.15800558191884476
aF10.131165440273586
aF0.1952206268343561
ag334
ag334
aF8.009586880716485
aF0.15809273858299744
aF10.138224904544193
aF0.19552399919320845
ag334
ag334
aF8.009586880716485
aF0.15809273858299744
aF10.138224904544193
aF0.19552399919320845
ag334
ag334
aF8.00879247076762
aF0.15812161915710682
aF10.137436693411075
aF0.1952417725803542
ag334
ag334
aF8.00879247076762
aF0.15812161915710682
aF10.137436693411075
aF0.1952417725803542
ag334
ag334
aF8.00820617512094
aF0.1581433760835729
aF10.1377568232205
aF0.19527992706542563
ag334
ag334
aF8.00820617512094
aF0.1581433760835729
aF10.1377568232205
aF0.19527992706542563
ag334
ag334
aF8.006457028573433
aF0.15806652861562143
aF10.13451231973868
aF0.19518315558411564
ag334
ag334
aF8.006457028573433
aF0.15806652861562143
aF10.13451231973868
aF0.19518315558411564
ag334
ag334
aF8.00708685603392
aF0.15808625804041934
aF10.134591354461874
aF0.1953551034461796
ag334
ag334
aF8.00708685603392
aF0.15808625804041934
aF10.134591354461874
aF0.1953551034461796
ag334
ag334
aF8.004513083016594
aF0.15806774390304734
aF10.132771539896344
aF0.19529618286338465
ag334
ag334
aF8.004513083016594
aF0.15806774390304734
aF10.132771539896344
aF0.19529618286338465
ag334
ag334
aF8.006197309646414
aF0.15805638818626028
aF10.13425951984081
aF0.19528918689015035
ag334
ag334
aF8.006197309646414
aF0.15805638818626028
aF10.13425951984081
aF0.19528918689015035
ag334
ag334
aF8.007888444354391
aF0.1581137451600602
aF10.135781625920764
aF0.19544535482307765
ag334
ag334
aF8.007888444354391
aF0.1581137451600602
aF10.135781625920764
aF0.19544535482307765
ag334
ag334
aF8.011525229385795
aF0.1581805196827002
aF10.141140795066436
aF0.195491669956215
ag334
ag334
aF8.011525229385795
aF0.1581805196827002
aF10.141140795066436
aF0.195491669956215
ag334
ag334
aF8.007757494673172
aF0.1580889777323411
aF10.135903840898427
aF0.19544621150024882
ag334
ag334
aF8.007757494673172
aF0.1580889777323411
aF10.135903840898427
aF0.19544621150024882
ag334
ag334
aF8.008085039672835
aF0.15810320097891595
aF10.136076530517691
aF0.19528072724770873
ag334
ag334
aF8.008085039672835
aF0.15810320097891595
aF10.136076530517691
aF0.19528072724770873
ag334
ag334
aF8.010447821540593
aF0.15811823399760608
aF10.13864611851038
aF0.19544340985264308
ag334
ag334
aF8.010447821540593
aF0.15811823399760608
aF10.13864611851038
aF0.19544340985264308
ag334
ag334
aF8.007825213829232
aF0.15808113485422676
aF10.13602395760641
aF0.19541770618064816
ag334
ag334
aF8.007825213829232
aF0.15808113485422676
aF10.13602395760641
aF0.19541770618064816
ag334
ag334
aF8.009758348217831
aF0.1581091858139086
aF10.138516410473226
aF0.19538901220770208
ag334
ag334
aF8.009758348217831
aF0.1581091858139086
aF10.138516410473226
aF0.19538901220770208
ag334
ag334
aF8.008412849775759
aF0.1581308231688459
aF10.13646677290032
aF0.1954437453957251
ag334
ag334
aF8.008412849775759
aF0.1581308231688459
aF10.13646677290032
aF0.1954437453957251
ag334
ag334
aF8.010096500667789
aF0.15813859773880912
aF10.13896839703057
aF0.19549551574819035
ag334
ag334
aF8.010096500667789
aF0.15813859773880912
aF10.13896839703057
aF0.19549551574819035
ag334
ag334
aF8.00773227453611
aF0.15809882245895523
aF10.135721743080111
aF0.19539419006526623
ag334
ag334
aF8.00773227453611
aF0.15809882245895523
aF10.135721743080111
aF0.19539419006526623
ag334
ag334
aF8.007761659787828
aF0.1581465921615966
aF10.136417448431844
aF0.19538015745454826
ag334
ag334
aF8.007761659787828
aF0.1581465921615966
aF10.136417448431844
aF0.19538015745454826
ag334
ag334
aF8.01264120516849
aF0.15820152007605606
aF10.141455802883339
aF0.19550786191674022
ag334
ag334
aF8.01264120516849
aF0.15820152007605606
aF10.141455802883339
aF0.19550786191674022
ag334
ag334
aF8.009166927479429
aF0.15810832905748065
aF10.13734300169606
aF0.19546056971447637
ag334
ag334
aF8.009166927479429
aF0.15810832905748065
aF10.13734300169606
aF0.19546056971447637
ag334
ag334
aF8.010906732964237
aF0.15814407814385414
aF10.140263362971545
aF0.19541065866377125
ag334
ag334
aF8.010906732964237
aF0.15814407814385414
aF10.140263362971545
aF0.19541065866377125
ag334
ag334
aF8.011813168272973
aF0.1581822943518413
aF10.140945600783784
aF0.19545452916024306
ag334
ag334
aF8.011813168272973
aF0.1581822943518413
aF10.140945600783784
aF0.19545452916024306
ag334
ag334
aF8.009726899144503
aF0.15813636089658029
aF10.138256640426587
aF0.19541377189682013
ag334
ag334
aF8.009726899144503
aF0.15813636089658029
aF10.138256640426587
aF0.19541377189682013
ag334
ag334
aF8.010115972214225
aF0.15813282647301516
aF10.13915657231475
aF0.19541057418395127
ag334
ag334
aF8.010115972214225
aF0.15813282647301516
aF10.13915657231475
aF0.19541057418395127
ag334
ag334
aF8.009235749556781
aF0.1581293591194661
aF10.13759764576511
aF0.1954344706605789
ag334
ag334
aF8.009235749556781
aF0.1581293591194661
aF10.13759764576511
aF0.1954344706605789
ag334
ag334
aF8.008974578313808
aF0.15809601701105452
aF10.137463685952124
aF0.19539899797113225
ag334
ag334
aF8.008974578313808
aF0.15809601701105452
aF10.137463685952124
aF0.19539899797113225
ag334
ag334
aF8.008209714100136
aF0.15811947415409425
aF10.136674729164568
aF0.19539519141749223
ag334
ag334
aF8.008209714100136
aF0.15811947415409425
aF10.136674729164568
aF0.19539519141749223
ag334
ag334
aF8.009198095715158
aF0.15811886997849822
aF10.138220850482282
aF0.19537621974136316
ag334
ag334
aF8.009198095715158
aF0.15811886997849822
aF10.138220850482282
aF0.19537621974136316
ag334
ag334
aF8.008634444551385
aF0.15807528856641703
aF10.136406901564726
aF0.19532964159112676
ag334
ag334
aF8.008634444551385
aF0.15807528856641703
aF10.136406901564726
aF0.19532964159112676
ag334
ag334
aF8.009372180236301
aF0.15814764104032838
aF10.137925817038646
aF0.1954315235020764
ag334
ag334
aF8.009372180236301
aF0.15814764104032838
aF10.137925817038646
aF0.1954315235020764
ag334
ag334
aF8.007873386904892
aF0.15810430080268487
aF10.136136268237568
aF0.1953493965432375
ag334
ag334
aF8.007873386904892
aF0.15810430080268487
aF10.136136268237568
aF0.1953493965432375
ag334
ag334
aF8.006563522808236
aF0.15806072981410715
aF10.134429922768758
aF0.19534885480701966
ag334
ag334
aF8.006563522808236
aF0.15806072981410715
aF10.134429922768758
aF0.19534885480701966
ag334
ag334
aF8.00748311531893
aF0.15810897080634906
aF10.135995551637201
aF0.19539757653359902
ag334
ag334
aF8.00748311531893
aF0.15810897080634906
aF10.135995551637201
aF0.19539757653359902
ag334
ag334
aF8.012297996705852
aF0.1581738658283882
aF10.141540169530872
aF0.1955255444225983
ag334
ag334
aF8.012297996705852
aF0.1581738658283882
aF10.141540169530872
aF0.1955255444225983
ag334
ag334
aF8.00816739329451
aF0.15811228767054475
aF10.13625855234312
aF0.1953364579537804
ag334
ag334
aF8.00816739329451
aF0.15811228767054475
aF10.13625855234312
aF0.1953364579537804
ag334
ag334
aF8.006798665866315
aF0.15807737030234842
aF10.13443993217292
aF0.19539073414340666
ag334
ag334
aF8.006798665866315
aF0.15807737030234842
aF10.13443993217292
aF0.19539073414340666
ag334
ag334
aF8.008614877490544
aF0.15812139930350683
aF10.137269628986166
aF0.1953740859873808
ag334
ag334
aF8.008614877490544
aF0.15812139930350683
aF10.137269628986166
aF0.1953740859873808
ag334
ag334
aF8.006966869954063
aF0.15808341040123983
aF10.134682761171804
aF0.19541696081996718
ag334
ag334
aF8.006966869954063
aF0.15808341040123983
aF10.134682761171804
aF0.19541696081996718
ag334
ag334
aF8.009197361640831
aF0.15813451354188918
aF10.137595867807017
aF0.19539812299442444
ag334
ag334
aF8.009197361640831
aF0.15813451354188918
aF10.137595867807017
aF0.19539812299442444
ag334
ag334
aF8.009225765015122
aF0.15815500362811505
aF10.13784473360091
aF0.19537825658533015
ag334
ag334
aF8.009225765015122
aF0.15815500362811505
aF10.13784473360091
aF0.19537825658533015
ag334
ag334
aF8.009137658440721
aF0.15811520773000506
aF10.137557973352067
aF0.19539467017703713
ag334
ag334
aF8.009137658440721
aF0.15811520773000506
aF10.137557973352067
aF0.19539467017703713
ag334
ag334
aF8.00784666096581
aF0.15807624586268013
aF10.13602631501408
aF0.19537541293317479
ag334
ag334
aF8.00784666096581
aF0.15807624586268013
aF10.13602631501408
aF0.19537541293317479
ag334
ag334
aF8.007452440695745
aF0.15807929233014717
aF10.135424397064044
aF0.19535600088097008
ag334
ag334
aF8.007452440695745
aF0.15807929233014717
aF10.135424397064044
aF0.19535600088097008
ag334
ag334
aF8.008934331307794
aF0.15812969003615124
aF10.137422074310159
aF0.1954006307036852
ag334
ag334
aF8.008934331307794
aF0.15812969003615124
aF10.137422074310159
aF0.1954006307036852
ag334
ag334
aF8.00855105016546
aF0.15808939551351753
aF10.136926323106445
aF0.19538524817732955
ag334
ag334
aF8.00855105016546
aF0.15808939551351753
aF10.136926323106445
aF0.19538524817732955
ag334
ag334
aF8.008147763792602
aF0.15810565124195905
aF10.136221197586362
aF0.19535802799786867
ag334
ag334
aF8.008147763792602
aF0.15810565124195905
aF10.136221197586362
aF0.19535802799786867
ag334
ag334
aF8.009311850697276
aF0.15811684446639615
aF10.137943677535192
aF0.19542951961806923
ag334
ag334
aF8.009311850697276
aF0.15811684446639615
aF10.137943677535192
aF0.19542951961806923
ag334
ag334
aF8.008549970178027
aF0.15811546580785976
aF10.136758044242594
aF0.19540047906031752
ag334
ag334
aF8.008549970178027
aF0.15811546580785976
aF10.136758044242594
aF0.19540047906031752
ag334
ag334
aF8.009166639194367
aF0.15812453790263478
aF10.137642491797676
aF0.19544993788303092
ag334
ag334
aF8.009166639194367
aF0.15812453790263478
aF10.137642491797676
aF0.19544993788303092
ag334
ag334
aF8.007568977262048
aF0.1580830362901153
aF10.135620378576746
aF0.195382490264249
ag334
ag334
aF8.007568977262048
aF0.1580830362901153
aF10.135620378576746
aF0.195382490264249
ag334
ag334
aF8.007260422042306
aF0.15808975873684689
aF10.13546801028743
aF0.19537020771168095
ag334
ag334
aF8.007260422042306
aF0.15808975873684689
aF10.13546801028743
aF0.19537020771168095
ag334
ag334
aF8.008618307659889
aF0.15812224540145825
aF10.137027005528553
aF0.19537175478944382
ag334
ag334
aF8.008618307659889
aF0.15812224540145825
aF10.137027005528553
aF0.19537175478944382
ag334
ag334
aF8.007559979771132
aF0.15809407171963544
aF10.135631057823321
aF0.19539919016203058
ag334
ag334
aF8.007559979771132
aF0.15809407171963544
aF10.135631057823321
aF0.19539919016203058
ag334
ag334
aF8.008670480347897
aF0.15812358865547055
aF10.136857021045829
aF0.19536681417912885
ag334
ag334
aF8.008670480347897
aF0.15812358865547055
aF10.136857021045829
aF0.19536681417912885
ag334
ag334
aF8.008085431634564
aF0.1581122325441284
aF10.136375475170457
aF0.1953855332476156
ag334
ag334
aF8.008085431634564
aF0.1581122325441284
aF10.136375475170457
aF0.1953855332476156
ag334
ag334
aF8.008932206204113
aF0.15814198892181083
aF10.137417377100501
aF0.19540720409763174
ag334
ag334
aF8.008932206204113
aF0.15814198892181083
aF10.137417377100501
aF0.19540720409763174
ag334
ag334
aF8.00818990712173
aF0.158104932752591
aF10.136467389591266
aF0.19538421961744634
ag334
ag334
aF8.00818990712173
aF0.158104932752591
aF10.136467389591266
aF0.19538421961744634
ag334
ag334
atp355
ba(lp356
g15
(g16
(dp357
g18
g19
(g20
(I0
tp358
g22
tp359
Rp360
(I1
(I1
tp361
g29
I00
(lp362
g43
atp363
bsg282
Nstp364
Rp365
ag15
(g16
(dp366
g18
g19
(g20
(I0
tp367
g22
tp368
Rp369
(I1
(I247
tp370
g29
I00
(lp371
g33
ag34
ag35
ag36
ag37
ag38
ag39
ag40
ag41
ag42
ag44
ag45
ag46
ag47
ag48
ag49
ag50
ag51
ag52
ag53
ag54
ag55
ag56
ag57
ag58
ag59
ag60
ag61
ag62
ag63
ag64
ag65
ag66
ag67
ag68
ag69
ag70
ag71
ag72
ag73
ag74
ag75
ag76
ag77
ag78
ag79
ag80
ag81
ag82
ag83
ag84
ag85
ag86
ag87
ag88
ag89
ag90
ag91
ag92
ag93
ag94
ag95
ag96
ag97
ag98
ag99
ag100
ag101
ag102
ag103
ag104
ag105
ag106
ag107
ag108
ag109
ag110
ag111
ag112
ag113
ag114
ag115
ag116
ag117
ag118
ag119
ag120
ag121
ag122
ag123
ag124
ag125
ag126
ag127
ag128
ag129
ag130
ag131
ag132
ag133
ag134
ag135
ag136
ag137
ag138
ag139
ag140
ag141
ag142
ag143
ag144
ag145
ag146
ag147
ag148
ag149
ag150
ag151
ag152
ag153
ag154
ag155
ag156
ag157
ag158
ag159
ag160
ag161
ag162
ag163
ag164
ag165
ag166
ag167
ag168
ag169
ag170
ag171
ag172
ag173
ag174
ag175
ag176
ag177
ag178
ag179
ag180
ag181
ag182
ag183
ag184
ag185
ag186
ag187
ag188
ag189
ag190
ag191
ag192
ag193
ag194
ag195
ag196
ag197
ag198
ag199
ag200
ag201
ag202
ag203
ag204
ag205
ag206
ag207
ag208
ag209
ag210
ag211
ag212
ag213
ag214
ag215
ag216
ag217
ag218
ag219
ag220
ag221
ag222
ag223
ag224
ag225
ag226
ag227
ag228
ag229
ag230
ag231
ag232
ag233
ag234
ag235
ag236
ag237
ag238
ag239
ag240
ag241
ag242
ag243
ag244
ag245
ag246
ag247
ag248
ag249
ag250
ag251
ag252
ag253
ag254
ag255
ag256
ag257
ag258
ag259
ag260
ag261
ag262
ag263
ag264
ag265
ag266
ag267
ag268
ag269
ag270
ag271
ag272
ag273
ag274
ag275
ag276
ag277
ag278
ag279
ag280
atp372
bsg282
Nstp373
Rp374
a(dp375
S'0.14.1'
p376
(dp377
S'axes'
p378
g14
sS'blocks'
p379
(lp380
(dp381
S'mgr_locs'
p382
c__builtin__
slice
p383
(I10
I11
I1
tp384
Rp385
sS'values'
p386
g303
sa(dp387
g382
g19
(g20
(I0
tp388
g22
tp389
Rp390
(I1
(I247
tp391
g293
I00
S'\x00\x00\x00\x00\x00\x00\x00\x00\x01\x00\x00\x00\x00\x00\x00\x00\x02\x00\x00\x00\x00\x00\x00\x00\x03\x00\x00\x00\x00\x00\x00\x00\x04\x00\x00\x00\x00\x00\x00\x00\x05\x00\x00\x00\x00\x00\x00\x00\x06\x00\x00\x00\x00\x00\x00\x00\x07\x00\x00\x00\x00\x00\x00\x00\x08\x00\x00\x00\x00\x00\x00\x00\t\x00\x00\x00\x00\x00\x00\x00\x0b\x00\x00\x00\x00\x00\x00\x00\x0c\x00\x00\x00\x00\x00\x00\x00\r\x00\x00\x00\x00\x00\x00\x00\x0e\x00\x00\x00\x00\x00\x00\x00\x0f\x00\x00\x00\x00\x00\x00\x00\x10\x00\x00\x00\x00\x00\x00\x00\x11\x00\x00\x00\x00\x00\x00\x00\x12\x00\x00\x00\x00\x00\x00\x00\x13\x00\x00\x00\x00\x00\x00\x00\x14\x00\x00\x00\x00\x00\x00\x00\x15\x00\x00\x00\x00\x00\x00\x00\x16\x00\x00\x00\x00\x00\x00\x00\x17\x00\x00\x00\x00\x00\x00\x00\x18\x00\x00\x00\x00\x00\x00\x00\x19\x00\x00\x00\x00\x00\x00\x00\x1a\x00\x00\x00\x00\x00\x00\x00\x1b\x00\x00\x00\x00\x00\x00\x00\x1c\x00\x00\x00\x00\x00\x00\x00\x1d\x00\x00\x00\x00\x00\x00\x00\x1e\x00\x00\x00\x00\x00\x00\x00\x1f\x00\x00\x00\x00\x00\x00\x00 \x00\x00\x00\x00\x00\x00\x00!\x00\x00\x00\x00\x00\x00\x00"\x00\x00\x00\x00\x00\x00\x00#\x00\x00\x00\x00\x00\x00\x00$\x00\x00\x00\x00\x00\x00\x00%\x00\x00\x00\x00\x00\x00\x00&\x00\x00\x00\x00\x00\x00\x00\'\x00\x00\x00\x00\x00\x00\x00(\x00\x00\x00\x00\x00\x00\x00)\x00\x00\x00\x00\x00\x00\x00*\x00\x00\x00\x00\x00\x00\x00+\x00\x00\x00\x00\x00\x00\x00,\x00\x00\x00\x00\x00\x00\x00-\x00\x00\x00\x00\x00\x00\x00.\x00\x00\x00\x00\x00\x00\x00/\x00\x00\x00\x00\x00\x00\x000\x00\x00\x00\x00\x00\x00\x001\x00\x00\x00\x00\x00\x00\x002\x00\x00\x00\x00\x00\x00\x003\x00\x00\x00\x00\x00\x00\x004\x00\x00\x00\x00\x00\x00\x005\x00\x00\x00\x00\x00\x00\x006\x00\x00\x00\x00\x00\x00\x007\x00\x00\x00\x00\x00\x00\x008\x00\x00\x00\x00\x00\x00\x009\x00\x00\x00\x00\x00\x00\x00:\x00\x00\x00\x00\x00\x00\x00;\x00\x00\x00\x00\x00\x00\x00<\x00\x00\x00\x00\x00\x00\x00=\x00\x00\x00\x00\x00\x00\x00>\x00\x00\x00\x00\x00\x00\x00?\x00\x00\x00\x00\x00\x00\x00@\x00\x00\x00\x00\x00\x00\x00A\x00\x00\x00\x00\x00\x00\x00B\x00\x00\x00\x00\x00\x00\x00C\x00\x00\x00\x00\x00\x00\x00D\x00\x00\x00\x00\x00\x00\x00E\x00\x00\x00\x00\x00\x00\x00F\x00\x00\x00\x00\x00\x00\x00G\x00\x00\x00\x00\x00\x00\x00H\x00\x00\x00\x00\x00\x00\x00I\x00\x00\x00\x00\x00\x00\x00J\x00\x00\x00\x00\x00\x00\x00K\x00\x00\x00\x00\x00\x00\x00L\x00\x00\x00\x00\x00\x00\x00M\x00\x00\x00\x00\x00\x00\x00N\x00\x00\x00\x00\x00\x00\x00O\x00\x00\x00\x00\x00\x00\x00P\x00\x00\x00\x00\x00\x00\x00Q\x00\x00\x00\x00\x00\x00\x00R\x00\x00\x00\x00\x00\x00\x00S\x00\x00\x00\x00\x00\x00\x00T\x00\x00\x00\x00\x00\x00\x00U\x00\x00\x00\x00\x00\x00\x00V\x00\x00\x00\x00\x00\x00\x00W\x00\x00\x00\x00\x00\x00\x00X\x00\x00\x00\x00\x00\x00\x00Y\x00\x00\x00\x00\x00\x00\x00Z\x00\x00\x00\x00\x00\x00\x00[\x00\x00\x00\x00\x00\x00\x00\\\x00\x00\x00\x00\x00\x00\x00]\x00\x00\x00\x00\x00\x00\x00^\x00\x00\x00\x00\x00\x00\x00_\x00\x00\x00\x00\x00\x00\x00`\x00\x00\x00\x00\x00\x00\x00a\x00\x00\x00\x00\x00\x00\x00b\x00\x00\x00\x00\x00\x00\x00c\x00\x00\x00\x00\x00\x00\x00d\x00\x00\x00\x00\x00\x00\x00e\x00\x00\x00\x00\x00\x00\x00f\x00\x00\x00\x00\x00\x00\x00g\x00\x00\x00\x00\x00\x00\x00h\x00\x00\x00\x00\x00\x00\x00i\x00\x00\x00\x00\x00\x00\x00j\x00\x00\x00\x00\x00\x00\x00k\x00\x00\x00\x00\x00\x00\x00l\x00\x00\x00\x00\x00\x00\x00m\x00\x00\x00\x00\x00\x00\x00n\x00\x00\x00\x00\x00\x00\x00o\x00\x00\x00\x00\x00\x00\x00p\x00\x00\x00\x00\x00\x00\x00q\x00\x00\x00\x00\x00\x00\x00r\x00\x00\x00\x00\x00\x00\x00s\x00\x00\x00\x00\x00\x00\x00t\x00\x00\x00\x00\x00\x00\x00u\x00\x00\x00\x00\x00\x00\x00v\x00\x00\x00\x00\x00\x00\x00w\x00\x00\x00\x00\x00\x00\x00x\x00\x00\x00\x00\x00\x00\x00y\x00\x00\x00\x00\x00\x00\x00z\x00\x00\x00\x00\x00\x00\x00{\x00\x00\x00\x00\x00\x00\x00|\x00\x00\x00\x00\x00\x00\x00}\x00\x00\x00\x00\x00\x00\x00~\x00\x00\x00\x00\x00\x00\x00\x7f\x00\x00\x00\x00\x00\x00\x00\x80\x00\x00\x00\x00\x00\x00\x00\x81\x00\x00\x00\x00\x00\x00\x00\x82\x00\x00\x00\x00\x00\x00\x00\x83\x00\x00\x00\x00\x00\x00\x00\x84\x00\x00\x00\x00\x00\x00\x00\x85\x00\x00\x00\x00\x00\x00\x00\x86\x00\x00\x00\x00\x00\x00\x00\x87\x00\x00\x00\x00\x00\x00\x00\x88\x00\x00\x00\x00\x00\x00\x00\x89\x00\x00\x00\x00\x00\x00\x00\x8a\x00\x00\x00\x00\x00\x00\x00\x8b\x00\x00\x00\x00\x00\x00\x00\x8c\x00\x00\x00\x00\x00\x00\x00\x8d\x00\x00\x00\x00\x00\x00\x00\x8e\x00\x00\x00\x00\x00\x00\x00\x8f\x00\x00\x00\x00\x00\x00\x00\x90\x00\x00\x00\x00\x00\x00\x00\x91\x00\x00\x00\x00\x00\x00\x00\x92\x00\x00\x00\x00\x00\x00\x00\x93\x00\x00\x00\x00\x00\x00\x00\x94\x00\x00\x00\x00\x00\x00\x00\x95\x00\x00\x00\x00\x00\x00\x00\x96\x00\x00\x00\x00\x00\x00\x00\x97\x00\x00\x00\x00\x00\x00\x00\x98\x00\x00\x00\x00\x00\x00\x00\x99\x00\x00\x00\x00\x00\x00\x00\x9a\x00\x00\x00\x00\x00\x00\x00\x9b\x00\x00\x00\x00\x00\x00\x00\x9c\x00\x00\x00\x00\x00\x00\x00\x9d\x00\x00\x00\x00\x00\x00\x00\x9e\x00\x00\x00\x00\x00\x00\x00\x9f\x00\x00\x00\x00\x00\x00\x00\xa0\x00\x00\x00\x00\x00\x00\x00\xa1\x00\x00\x00\x00\x00\x00\x00\xa2\x00\x00\x00\x00\x00\x00\x00\xa3\x00\x00\x00\x00\x00\x00\x00\xa4\x00\x00\x00\x00\x00\x00\x00\xa5\x00\x00\x00\x00\x00\x00\x00\xa6\x00\x00\x00\x00\x00\x00\x00\xa7\x00\x00\x00\x00\x00\x00\x00\xa8\x00\x00\x00\x00\x00\x00\x00\xa9\x00\x00\x00\x00\x00\x00\x00\xaa\x00\x00\x00\x00\x00\x00\x00\xab\x00\x00\x00\x00\x00\x00\x00\xac\x00\x00\x00\x00\x00\x00\x00\xad\x00\x00\x00\x00\x00\x00\x00\xae\x00\x00\x00\x00\x00\x00\x00\xaf\x00\x00\x00\x00\x00\x00\x00\xb0\x00\x00\x00\x00\x00\x00\x00\xb1\x00\x00\x00\x00\x00\x00\x00\xb2\x00\x00\x00\x00\x00\x00\x00\xb3\x00\x00\x00\x00\x00\x00\x00\xb4\x00\x00\x00\x00\x00\x00\x00\xb5\x00\x00\x00\x00\x00\x00\x00\xb6\x00\x00\x00\x00\x00\x00\x00\xb7\x00\x00\x00\x00\x00\x00\x00\xb8\x00\x00\x00\x00\x00\x00\x00\xb9\x00\x00\x00\x00\x00\x00\x00\xba\x00\x00\x00\x00\x00\x00\x00\xbb\x00\x00\x00\x00\x00\x00\x00\xbc\x00\x00\x00\x00\x00\x00\x00\xbd\x00\x00\x00\x00\x00\x00\x00\xbe\x00\x00\x00\x00\x00\x00\x00\xbf\x00\x00\x00\x00\x00\x00\x00\xc0\x00\x00\x00\x00\x00\x00\x00\xc1\x00\x00\x00\x00\x00\x00\x00\xc2\x00\x00\x00\x00\x00\x00\x00\xc3\x00\x00\x00\x00\x00\x00\x00\xc4\x00\x00\x00\x00\x00\x00\x00\xc5\x00\x00\x00\x00\x00\x00\x00\xc6\x00\x00\x00\x00\x00\x00\x00\xc7\x00\x00\x00\x00\x00\x00\x00\xc8\x00\x00\x00\x00\x00\x00\x00\xc9\x00\x00\x00\x00\x00\x00\x00\xca\x00\x00\x00\x00\x00\x00\x00\xcb\x00\x00\x00\x00\x00\x00\x00\xcc\x00\x00\x00\x00\x00\x00\x00\xcd\x00\x00\x00\x00\x00\x00\x00\xce\x00\x00\x00\x00\x00\x00\x00\xcf\x00\x00\x00\x00\x00\x00\x00\xd0\x00\x00\x00\x00\x00\x00\x00\xd1\x00\x00\x00\x00\x00\x00\x00\xd2\x00\x00\x00\x00\x00\x00\x00\xd3\x00\x00\x00\x00\x00\x00\x00\xd4\x00\x00\x00\x00\x00\x00\x00\xd5\x00\x00\x00\x00\x00\x00\x00\xd6\x00\x00\x00\x00\x00\x00\x00\xd7\x00\x00\x00\x00\x00\x00\x00\xd8\x00\x00\x00\x00\x00\x00\x00\xd9\x00\x00\x00\x00\x00\x00\x00\xda\x00\x00\x00\x00\x00\x00\x00\xdb\x00\x00\x00\x00\x00\x00\x00\xdc\x00\x00\x00\x00\x00\x00\x00\xdd\x00\x00\x00\x00\x00\x00\x00\xde\x00\x00\x00\x00\x00\x00\x00\xdf\x00\x00\x00\x00\x00\x00\x00\xe0\x00\x00\x00\x00\x00\x00\x00\xe1\x00\x00\x00\x00\x00\x00\x00\xe2\x00\x00\x00\x00\x00\x00\x00\xe3\x00\x00\x00\x00\x00\x00\x00\xe4\x00\x00\x00\x00\x00\x00\x00\xe5\x00\x00\x00\x00\x00\x00\x00\xe6\x00\x00\x00\x00\x00\x00\x00\xe7\x00\x00\x00\x00\x00\x00\x00\xe8\x00\x00\x00\x00\x00\x00\x00\xe9\x00\x00\x00\x00\x00\x00\x00\xea\x00\x00\x00\x00\x00\x00\x00\xeb\x00\x00\x00\x00\x00\x00\x00\xec\x00\x00\x00\x00\x00\x00\x00\xed\x00\x00\x00\x00\x00\x00\x00\xee\x00\x00\x00\x00\x00\x00\x00\xef\x00\x00\x00\x00\x00\x00\x00\xf0\x00\x00\x00\x00\x00\x00\x00\xf1\x00\x00\x00\x00\x00\x00\x00\xf2\x00\x00\x00\x00\x00\x00\x00\xf3\x00\x00\x00\x00\x00\x00\x00\xf4\x00\x00\x00\x00\x00\x00\x00\xf5\x00\x00\x00\x00\x00\x00\x00\xf6\x00\x00\x00\x00\x00\x00\x00\xf7\x00\x00\x00\x00\x00\x00\x00'
p392
tp393
bsg386
g314
sasstp394
bsb.