ccopy_reg
_reconstructor
p0
(cpandas.core.frame
DataFrame
p1
c__builtin__
object
p2
Ntp3
Rp4
(dp5
S'_metadata'
p6
(lp7
sS'_typ'
p8
S'dataframe'
p9
sS'_data'
p10
g0
(cpandas.core.internals
BlockManager
p11
g2
Ntp12
Rp13
((lp14
cpandas.core.indexes.base
_new_Index
p15
(cpandas.core.indexes.base
Index
p16
(dp17
S'data'
p18
cnumpy.core.multiarray
_reconstruct
p19
(cnumpy
ndarray
p20
(I0
tp21
S'b'
p22
tp23
Rp24
(I1
(I248
tp25
cnumpy
dtype
p26
(S'O8'
p27
I0
I1
tp28
Rp29
(I3
S'|'
p30
NNNI-1
I-1
I63
tp31
bI00
(lp32
S'year'
p33
aS'type'
p34
aS'procOriginal'
p35
aS'proc'
p36
aS'proc_s0'
p37
aS'cat'
p38
aS'inputWSFile'
p39
aS'nominalDataName'
p40
aS'modelWSFile'
p41
aS'model'
p42
aS'rate'
p43
aS'nominal_yield'
p44
aS'sumw2'
p45
aS'nominal_yield_COWCorr'
p46
aS'weight_Pileup_up_yield'
p47
aS'weight_Pileup_down_yield'
p48
aS'weight_TriggerSF_up_yield'
p49
aS'weight_TriggerSF_down_yield'
p50
aS'weight_ElectronVetoSF_up_yield'
p51
aS'weight_ElectronVetoSF_down_yield'
p52
aS'weight_PreselSF_up_yield'
p53
aS'weight_PreselSF_down_yield'
p54
aS'energyErrShift_up_yield'
p55
aS'energyErrShift_down_yield'
p56
aS'weight_LHEScal_0_yield'
p57
aS'weight_LHEScal_0_yield_COWCorr'
p58
aS'weight_LHEScal_1_yield'
p59
aS'weight_LHEScal_1_yield_COWCorr'
p60
aS'weight_LHEScal_3_yield'
p61
aS'weight_LHEScal_3_yield_COWCorr'
p62
aS'weight_LHEScal_5_yield'
p63
aS'weight_LHEScal_5_yield_COWCorr'
p64
aS'weight_LHEScal_7_yield'
p65
aS'weight_LHEScal_7_yield_COWCorr'
p66
aS'weight_LHEScal_8_yield'
p67
aS'weight_LHEScal_8_yield_COWCorr'
p68
aS'weight_AlphaS_up_yield'
p69
aS'weight_AlphaS_down_yield'
p70
aS'weight_AlphaS_up_yield_COWCorr'
p71
aS'weight_AlphaS_down_yield_COWCorr'
p72
aS'weight_PS_ISR_up_yield'
p73
aS'weight_PS_ISR_down_yield'
p74
aS'weight_PS_ISR_up_yield_COWCorr'
p75
aS'weight_PS_ISR_down_yield_COWCorr'
p76
aS'weight_PS_FSR_up_yield'
p77
aS'weight_PS_FSR_down_yield'
p78
aS'weight_PS_FSR_up_yield_COWCorr'
p79
aS'weight_PS_FSR_down_yield_COWCorr'
p80
aS'weight_LHEPd_1_yield'
p81
aS'weight_LHEPd_1_yield_COWCorr'
p82
aS'weight_LHEPd_2_yield'
p83
aS'weight_LHEPd_2_yield_COWCorr'
p84
aS'weight_LHEPd_3_yield'
p85
aS'weight_LHEPd_3_yield_COWCorr'
p86
aS'weight_LHEPd_4_yield'
p87
aS'weight_LHEPd_4_yield_COWCorr'
p88
aS'weight_LHEPd_5_yield'
p89
aS'weight_LHEPd_5_yield_COWCorr'
p90
aS'weight_LHEPd_6_yield'
p91
aS'weight_LHEPd_6_yield_COWCorr'
p92
aS'weight_LHEPd_7_yield'
p93
aS'weight_LHEPd_7_yield_COWCorr'
p94
aS'weight_LHEPd_8_yield'
p95
aS'weight_LHEPd_8_yield_COWCorr'
p96
aS'weight_LHEPd_9_yield'
p97
aS'weight_LHEPd_9_yield_COWCorr'
p98
aS'weight_LHEPd_10_yield'
p99
aS'weight_LHEPd_10_yield_COWCorr'
p100
aS'weight_LHEPd_11_yield'
p101
aS'weight_LHEPd_11_yield_COWCorr'
p102
aS'weight_LHEPd_12_yield'
p103
aS'weight_LHEPd_12_yield_COWCorr'
p104
aS'weight_LHEPd_13_yield'
p105
aS'weight_LHEPd_13_yield_COWCorr'
p106
aS'weight_LHEPd_14_yield'
p107
aS'weight_LHEPd_14_yield_COWCorr'
p108
aS'weight_LHEPd_15_yield'
p109
aS'weight_LHEPd_15_yield_COWCorr'
p110
aS'weight_LHEPd_16_yield'
p111
aS'weight_LHEPd_16_yield_COWCorr'
p112
aS'weight_LHEPd_17_yield'
p113
aS'weight_LHEPd_17_yield_COWCorr'
p114
aS'weight_LHEPd_18_yield'
p115
aS'weight_LHEPd_18_yield_COWCorr'
p116
aS'weight_LHEPd_19_yield'
p117
aS'weight_LHEPd_19_yield_COWCorr'
p118
aS'weight_LHEPd_20_yield'
p119
aS'weight_LHEPd_20_yield_COWCorr'
p120
aS'weight_LHEPd_21_yield'
p121
aS'weight_LHEPd_21_yield_COWCorr'
p122
aS'weight_LHEPd_22_yield'
p123
aS'weight_LHEPd_22_yield_COWCorr'
p124
aS'weight_LHEPd_23_yield'
p125
aS'weight_LHEPd_23_yield_COWCorr'
p126
aS'weight_LHEPd_24_yield'
p127
aS'weight_LHEPd_24_yield_COWCorr'
p128
aS'weight_LHEPd_25_yield'
p129
aS'weight_LHEPd_25_yield_COWCorr'
p130
aS'weight_LHEPd_26_yield'
p131
aS'weight_LHEPd_26_yield_COWCorr'
p132
aS'weight_LHEPd_27_yield'
p133
aS'weight_LHEPd_27_yield_COWCorr'
p134
aS'weight_LHEPd_28_yield'
p135
aS'weight_LHEPd_28_yield_COWCorr'
p136
aS'weight_LHEPd_29_yield'
p137
aS'weight_LHEPd_29_yield_COWCorr'
p138
aS'weight_LHEPd_30_yield'
p139
aS'weight_LHEPd_30_yield_COWCorr'
p140
aS'weight_LHEPd_31_yield'
p141
aS'weight_LHEPd_31_yield_COWCorr'
p142
aS'weight_LHEPd_32_yield'
p143
aS'weight_LHEPd_32_yield_COWCorr'
p144
aS'weight_LHEPd_33_yield'
p145
aS'weight_LHEPd_33_yield_COWCorr'
p146
aS'weight_LHEPd_34_yield'
p147
aS'weight_LHEPd_34_yield_COWCorr'
p148
aS'weight_LHEPd_35_yield'
p149
aS'weight_LHEPd_35_yield_COWCorr'
p150
aS'weight_LHEPd_36_yield'
p151
aS'weight_LHEPd_36_yield_COWCorr'
p152
aS'weight_LHEPd_37_yield'
p153
aS'weight_LHEPd_37_yield_COWCorr'
p154
aS'weight_LHEPd_38_yield'
p155
aS'weight_LHEPd_38_yield_COWCorr'
p156
aS'weight_LHEPd_39_yield'
p157
aS'weight_LHEPd_39_yield_COWCorr'
p158
aS'weight_LHEPd_40_yield'
p159
aS'weight_LHEPd_40_yield_COWCorr'
p160
aS'weight_LHEPd_41_yield'
p161
aS'weight_LHEPd_41_yield_COWCorr'
p162
aS'weight_LHEPd_42_yield'
p163
aS'weight_LHEPd_42_yield_COWCorr'
p164
aS'weight_LHEPd_43_yield'
p165
aS'weight_LHEPd_43_yield_COWCorr'
p166
aS'weight_LHEPd_44_yield'
p167
aS'weight_LHEPd_44_yield_COWCorr'
p168
aS'weight_LHEPd_45_yield'
p169
aS'weight_LHEPd_45_yield_COWCorr'
p170
aS'weight_LHEPd_46_yield'
p171
aS'weight_LHEPd_46_yield_COWCorr'
p172
aS'weight_LHEPd_47_yield'
p173
aS'weight_LHEPd_47_yield_COWCorr'
p174
aS'weight_LHEPd_48_yield'
p175
aS'weight_LHEPd_48_yield_COWCorr'
p176
aS'weight_LHEPd_49_yield'
p177
aS'weight_LHEPd_49_yield_COWCorr'
p178
aS'weight_LHEPd_50_yield'
p179
aS'weight_LHEPd_50_yield_COWCorr'
p180
aS'weight_LHEPd_51_yield'
p181
aS'weight_LHEPd_51_yield_COWCorr'
p182
aS'weight_LHEPd_52_yield'
p183
aS'weight_LHEPd_52_yield_COWCorr'
p184
aS'weight_LHEPd_53_yield'
p185
aS'weight_LHEPd_53_yield_COWCorr'
p186
aS'weight_LHEPd_54_yield'
p187
aS'weight_LHEPd_54_yield_COWCorr'
p188
aS'weight_LHEPd_55_yield'
p189
aS'weight_LHEPd_55_yield_COWCorr'
p190
aS'weight_LHEPd_56_yield'
p191
aS'weight_LHEPd_56_yield_COWCorr'
p192
aS'weight_LHEPd_57_yield'
p193
aS'weight_LHEPd_57_yield_COWCorr'
p194
aS'weight_LHEPd_58_yield'
p195
aS'weight_LHEPd_58_yield_COWCorr'
p196
aS'weight_LHEPd_59_yield'
p197
aS'weight_LHEPd_59_yield_COWCorr'
p198
aS'weight_LHEPd_60_yield'
p199
aS'weight_LHEPd_60_yield_COWCorr'
p200
aS'weight_LHEPd_61_yield'
p201
aS'weight_LHEPd_61_yield_COWCorr'
p202
aS'weight_LHEPd_62_yield'
p203
aS'weight_LHEPd_62_yield_COWCorr'
p204
aS'weight_LHEPd_63_yield'
p205
aS'weight_LHEPd_63_yield_COWCorr'
p206
aS'weight_LHEPd_64_yield'
p207
aS'weight_LHEPd_64_yield_COWCorr'
p208
aS'weight_LHEPd_65_yield'
p209
aS'weight_LHEPd_65_yield_COWCorr'
p210
aS'weight_LHEPd_66_yield'
p211
aS'weight_LHEPd_66_yield_COWCorr'
p212
aS'weight_LHEPd_67_yield'
p213
aS'weight_LHEPd_67_yield_COWCorr'
p214
aS'weight_LHEPd_68_yield'
p215
aS'weight_LHEPd_68_yield_COWCorr'
p216
aS'weight_LHEPd_69_yield'
p217
aS'weight_LHEPd_69_yield_COWCorr'
p218
aS'weight_LHEPd_70_yield'
p219
aS'weight_LHEPd_70_yield_COWCorr'
p220
aS'weight_LHEPd_71_yield'
p221
aS'weight_LHEPd_71_yield_COWCorr'
p222
aS'weight_LHEPd_72_yield'
p223
aS'weight_LHEPd_72_yield_COWCorr'
p224
aS'weight_LHEPd_73_yield'
p225
aS'weight_LHEPd_73_yield_COWCorr'
p226
aS'weight_LHEPd_74_yield'
p227
aS'weight_LHEPd_74_yield_COWCorr'
p228
aS'weight_LHEPd_75_yield'
p229
aS'weight_LHEPd_75_yield_COWCorr'
p230
aS'weight_LHEPd_76_yield'
p231
aS'weight_LHEPd_76_yield_COWCorr'
p232
aS'weight_LHEPd_77_yield'
p233
aS'weight_LHEPd_77_yield_COWCorr'
p234
aS'weight_LHEPd_78_yield'
p235
aS'weight_LHEPd_78_yield_COWCorr'
p236
aS'weight_LHEPd_79_yield'
p237
aS'weight_LHEPd_79_yield_COWCorr'
p238
aS'weight_LHEPd_80_yield'
p239
aS'weight_LHEPd_80_yield_COWCorr'
p240
aS'weight_LHEPd_81_yield'
p241
aS'weight_LHEPd_81_yield_COWCorr'
p242
aS'weight_LHEPd_82_yield'
p243
aS'weight_LHEPd_82_yield_COWCorr'
p244
aS'weight_LHEPd_83_yield'
p245
aS'weight_LHEPd_83_yield_COWCorr'
p246
aS'weight_LHEPd_84_yield'
p247
aS'weight_LHEPd_84_yield_COWCorr'
p248
aS'weight_LHEPd_85_yield'
p249
aS'weight_LHEPd_85_yield_COWCorr'
p250
aS'weight_LHEPd_86_yield'
p251
aS'weight_LHEPd_86_yield_COWCorr'
p252
aS'weight_LHEPd_87_yield'
p253
aS'weight_LHEPd_87_yield_COWCorr'
p254
aS'weight_LHEPd_88_yield'
p255
aS'weight_LHEPd_88_yield_COWCorr'
p256
aS'weight_LHEPd_89_yield'
p257
aS'weight_LHEPd_89_yield_COWCorr'
p258
aS'weight_LHEPd_90_yield'
p259
aS'weight_LHEPd_90_yield_COWCorr'
p260
aS'weight_LHEPd_91_yield'
p261
aS'weight_LHEPd_91_yield_COWCorr'
p262
aS'weight_LHEPd_92_yield'
p263
aS'weight_LHEPd_92_yield_COWCorr'
p264
aS'weight_LHEPd_93_yield'
p265
aS'weight_LHEPd_93_yield_COWCorr'
p266
aS'weight_LHEPd_94_yield'
p267
aS'weight_LHEPd_94_yield_COWCorr'
p268
aS'weight_LHEPd_95_yield'
p269
aS'weight_LHEPd_95_yield_COWCorr'
p270
aS'weight_LHEPd_96_yield'
p271
aS'weight_LHEPd_96_yield_COWCorr'
p272
aS'weight_LHEPd_97_yield'
p273
aS'weight_LHEPd_97_yield_COWCorr'
p274
aS'weight_LHEPd_98_yield'
p275
aS'weight_LHEPd_98_yield_COWCorr'
p276
aS'weight_LHEPd_99_yield'
p277
aS'weight_LHEPd_99_yield_COWCorr'
p278
aS'weight_LHEPd_100_yield'
p279
aS'weight_LHEPd_100_yield_COWCorr'
p280
atp281
bsS'name'
p282
Nstp283
Rp284
ag15
(cpandas.core.indexes.numeric
Int64Index
p285
(dp286
g18
g19
(g20
(I0
tp287
g22
tp288
Rp289
(I1
(I18
tp290
g26
(S'i8'
p291
I0
I1
tp292
Rp293
(I3
S'<'
p294
NNNI-1
I-1
I0
tp295
bI00
S'\x00\x00\x00\x00\x00\x00\x00\x00\x01\x00\x00\x00\x00\x00\x00\x00\x02\x00\x00\x00\x00\x00\x00\x00\x03\x00\x00\x00\x00\x00\x00\x00\x04\x00\x00\x00\x00\x00\x00\x00\x05\x00\x00\x00\x00\x00\x00\x00\x06\x00\x00\x00\x00\x00\x00\x00\x07\x00\x00\x00\x00\x00\x00\x00\x08\x00\x00\x00\x00\x00\x00\x00\t\x00\x00\x00\x00\x00\x00\x00\n\x00\x00\x00\x00\x00\x00\x00\x0b\x00\x00\x00\x00\x00\x00\x00\x0c\x00\x00\x00\x00\x00\x00\x00\r\x00\x00\x00\x00\x00\x00\x00\x0e\x00\x00\x00\x00\x00\x00\x00\x0f\x00\x00\x00\x00\x00\x00\x00\x10\x00\x00\x00\x00\x00\x00\x00\x11\x00\x00\x00\x00\x00\x00\x00'
p296
tp297
bsg282
Nstp298
Rp299
a(lp300
g19
(g20
(I0
tp301
g22
tp302
Rp303
(I1
(I1
I18
tp304
g26
(S'f8'
p305
I0
I1
tp306
Rp307
(I3
S'<'
p308
NNNI-1
I-1
I0
tp309
bI00
S'\x00\x00\x00\x00\x00\xa4\xbf@\x00\x00\x00\x00\x00\xa4\xbf@\x00\x00\x00\x00\x00\xa4\xbf@\x00\x00\x00\x00\x00\xa4\xbf@\x00\x00\x00\x00\x00\xa4\xbf@\x00\x00\x00\x00\x00\xa4\xbf@\x00\x00\x00\x00\x00\xa4\xbf@\x00\x00\x00\x00\x00\xa4\xbf@\x00\x00\x00\x00\x00^\xda@\x00\x00\x00\x00\x00^\xda@\x00\x00\x00\x00\x00^\xda@\x00\x00\x00\x00\x00^\xda@\x00\x00\x00\x00\x00^\xda@\x00\x00\x00\x00\x00^\xda@\x00\x00\x00\x00\x00^\xda@\x00\x00\x00\x00\x00^\xda@\x00\x00\x00\x00\x00\x00\xf0?\x00\x00\x00\x00\x00\x00\xf0\xbf'
p310
tp311
bag19
(g20
(I0
tp312
g22
tp313
Rp314
(I1
(I247
I18
tp315
g29
I00
(lp316
S'2022preEE'
p317
ag317
ag317
ag317
ag317
ag317
ag317
ag317
aS'2022postEE'
p318
ag318
ag318
ag318
ag318
ag318
ag318
ag318
aS'merged'
p319
ag319
aS'sig'
p320
ag320
ag320
ag320
ag320
ag320
ag320
ag320
ag320
ag320
ag320
ag320
ag320
ag320
ag320
ag320
aS'bkg'
p321
ag18
aS'GG2H_in'
p322
aS'GG2H_out'
p323
aS'TTH_in'
p324
aS'TTH_out'
p325
aS'VBF_in'
p326
aS'VBF_out'
p327
aS'VH_in'
p328
aS'VH_out'
p329
ag322
ag323
ag324
ag325
ag326
ag327
ag328
ag329
aS'bkg_mass'
p330
aS'data_obs'
p331
aS'ggH_in_2022preEE_hgg'
p332
aS'ggH_out_2022preEE_hgg'
p333
aS'ttH_in_2022preEE_hgg'
p334
aS'ttH_out_2022preEE_hgg'
p335
aS'qqH_in_2022preEE_hgg'
p336
aS'qqH_out_2022preEE_hgg'
p337
aS'VH_in_2022preEE_hgg'
p338
aS'VH_out_2022preEE_hgg'
p339
aS'ggH_in_2022postEE_hgg'
p340
aS'ggH_out_2022postEE_hgg'
p341
aS'ttH_in_2022postEE_hgg'
p342
aS'ttH_out_2022postEE_hgg'
p343
aS'qqH_in_2022postEE_hgg'
p344
aS'qqH_out_2022postEE_hgg'
p345
aS'VH_in_2022postEE_hgg'
p346
aS'VH_out_2022postEE_hgg'
p347
ag330
ag331
aS'ggh'
p348
ag348
aS'tth'
p349
ag349
aS'vbf'
p350
ag350
aS'vh'
p351
ag351
ag348
ag348
ag349
ag349
ag350
ag350
ag351
ag351
aS'-'
p352
ag352
aS'best_resolution'
p353
ag353
ag353
ag353
ag353
ag353
ag353
ag353
ag353
ag353
ag353
ag353
ag353
ag353
ag353
ag353
ag353
ag353
aS'../input_output_2022preEE/ws_signal/output_GluGluHToGG_M125_13TeV_amcatnloFXFX_pythia8_GG2H_in.root'
p354
aS'../input_output_2022preEE/ws_signal/output_GluGluHToGG_M125_13TeV_amcatnloFXFX_pythia8_GG2H_out.root'
p355
aS'../input_output_2022preEE/ws_signal/output_TTHToGG_M125_13TeV_amcatnlo_pythia8_TTH_in.root'
p356
aS'../input_output_2022preEE/ws_signal/output_TTHToGG_M125_13TeV_amcatnlo_pythia8_TTH_out.root'
p357
aS'../input_output_2022preEE/ws_signal/output_VBFHToGG_M125_13TeV_amcatnlo_pythia8_VBF_in.root'
p358
aS'../input_output_2022preEE/ws_signal/output_VBFHToGG_M125_13TeV_amcatnlo_pythia8_VBF_out.root'
p359
aS'../input_output_2022preEE/ws_signal/output_VHToGG_M125_13TeV_amcatnlo_pythia8_VH_in.root'
p360
aS'../input_output_2022preEE/ws_signal/output_VHToGG_M125_13TeV_amcatnlo_pythia8_VH_out.root'
p361
aS'../input_output_2022postEE/ws_signal/output_GluGluHToGG_M125_13TeV_amcatnloFXFX_pythia8_GG2H_in.root'
p362
aS'../input_output_2022postEE/ws_signal/output_GluGluHToGG_M125_13TeV_amcatnloFXFX_pythia8_GG2H_out.root'
p363
aS'../input_output_2022postEE/ws_signal/output_TTHToGG_M125_13TeV_amcatnlo_pythia8_TTH_in.root'
p364
aS'../input_output_2022postEE/ws_signal/output_TTHToGG_M125_13TeV_amcatnlo_pythia8_TTH_out.root'
p365
aS'../input_output_2022postEE/ws_signal/output_VBFHToGG_M125_13TeV_amcatnlo_pythia8_VBF_in.root'
p366
aS'../input_output_2022postEE/ws_signal/output_VBFHToGG_M125_13TeV_amcatnlo_pythia8_VBF_out.root'
p367
aS'../input_output_2022postEE/ws_signal/output_VHToGG_M125_13TeV_amcatnlo_pythia8_VH_in.root'
p368
aS'../input_output_2022postEE/ws_signal/output_VHToGG_M125_13TeV_amcatnlo_pythia8_VH_out.root'
p369
ag352
ag352
aS'ggh_in_125_13TeV_best_resolution'
p370
aS'ggh_out_125_13TeV_best_resolution'
p371
aS'tth_in_125_13TeV_best_resolution'
p372
aS'tth_out_125_13TeV_best_resolution'
p373
aS'vbf_in_125_13TeV_best_resolution'
p374
aS'vbf_out_125_13TeV_best_resolution'
p375
aS'vh_in_125_13TeV_best_resolution'
p376
aS'vh_out_125_13TeV_best_resolution'
p377
aS'ggh_in_125_13TeV_best_resolution'
p378
aS'ggh_out_125_13TeV_best_resolution'
p379
aS'tth_in_125_13TeV_best_resolution'
p380
aS'tth_out_125_13TeV_best_resolution'
p381
aS'vbf_in_125_13TeV_best_resolution'
p382
aS'vbf_out_125_13TeV_best_resolution'
p383
aS'vh_in_125_13TeV_best_resolution'
p384
aS'vh_out_125_13TeV_best_resolution'
p385
ag352
ag352
aS'./Models/signal/CMS-HGG_sigfit_packaged_best_resolution.root'
p386
aS'./Models/signal/CMS-HGG_sigfit_packaged_best_resolution.root'
p387
aS'./Models/signal/CMS-HGG_sigfit_packaged_best_resolution.root'
p388
aS'./Models/signal/CMS-HGG_sigfit_packaged_best_resolution.root'
p389
aS'./Models/signal/CMS-HGG_sigfit_packaged_best_resolution.root'
p390
aS'./Models/signal/CMS-HGG_sigfit_packaged_best_resolution.root'
p391
aS'./Models/signal/CMS-HGG_sigfit_packaged_best_resolution.root'
p392
aS'./Models/signal/CMS-HGG_sigfit_packaged_best_resolution.root'
p393
aS'./Models/signal/CMS-HGG_sigfit_packaged_best_resolution.root'
p394
aS'./Models/signal/CMS-HGG_sigfit_packaged_best_resolution.root'
p395
aS'./Models/signal/CMS-HGG_sigfit_packaged_best_resolution.root'
p396
aS'./Models/signal/CMS-HGG_sigfit_packaged_best_resolution.root'
p397
aS'./Models/signal/CMS-HGG_sigfit_packaged_best_resolution.root'
p398
aS'./Models/signal/CMS-HGG_sigfit_packaged_best_resolution.root'
p399
aS'./Models/signal/CMS-HGG_sigfit_packaged_best_resolution.root'
p400
aS'./Models/signal/CMS-HGG_sigfit_packaged_best_resolution.root'
p401
aS'./Models/background/CMS-HGG_multipdf_best_resolution.root'
p402
ag402
aS'wsig_13TeV:hggpdfsmrel_GG2H_in_2022preEE_best_resolution_13TeV'
p403
aS'wsig_13TeV:hggpdfsmrel_GG2H_out_2022preEE_best_resolution_13TeV'
p404
aS'wsig_13TeV:hggpdfsmrel_TTH_in_2022preEE_best_resolution_13TeV'
p405
aS'wsig_13TeV:hggpdfsmrel_TTH_out_2022preEE_best_resolution_13TeV'
p406
aS'wsig_13TeV:hggpdfsmrel_VBF_in_2022preEE_best_resolution_13TeV'
p407
aS'wsig_13TeV:hggpdfsmrel_VBF_out_2022preEE_best_resolution_13TeV'
p408
aS'wsig_13TeV:hggpdfsmrel_VH_in_2022preEE_best_resolution_13TeV'
p409
aS'wsig_13TeV:hggpdfsmrel_VH_out_2022preEE_best_resolution_13TeV'
p410
aS'wsig_13TeV:hggpdfsmrel_GG2H_in_2022postEE_best_resolution_13TeV'
p411
aS'wsig_13TeV:hggpdfsmrel_GG2H_out_2022postEE_best_resolution_13TeV'
p412
aS'wsig_13TeV:hggpdfsmrel_TTH_in_2022postEE_best_resolution_13TeV'
p413
aS'wsig_13TeV:hggpdfsmrel_TTH_out_2022postEE_best_resolution_13TeV'
p414
aS'wsig_13TeV:hggpdfsmrel_VBF_in_2022postEE_best_resolution_13TeV'
p415
aS'wsig_13TeV:hggpdfsmrel_VBF_out_2022postEE_best_resolution_13TeV'
p416
aS'wsig_13TeV:hggpdfsmrel_VH_in_2022postEE_best_resolution_13TeV'
p417
aS'wsig_13TeV:hggpdfsmrel_VH_out_2022postEE_best_resolution_13TeV'
p418
aS'multipdf:CMS_hgg_best_resolution_13TeV_bkgshape'
p419
aS'multipdf:roohist_data_mass_best_resolution'
p420
aF0.10045543626550599
aF0.00033422332026945237
aF0.10547969839249334
aF0.005672749809977351
aF0.10576996097541826
aF0.0008518028032289718
aF0.08159867423237724
aF0.0017610091011343145
aF0.01252652332747245
aF3.293167183956614e-05
aF0.024968049345192853
aF0.0012881326414761738
aF0.019254841879456856
aF3.247551679099253e-05
aF0.013272331707726136
aF8.832049928029138e-05
ag352
ag352
aF4.3924590075807545e-07
aF1.6544469661024666e-09
aF6.720248648629002e-06
aF4.245433465381478e-07
aF4.649750827694718e-06
aF2.3273061877015782e-08
aF1.5561842240150475e-06
aF3.1789810168269416e-08
aF4.6358131742343536e-08
aF2.2065786354773367e-10
aF4.1106990316598966e-07
aF2.1376639989410865e-08
aF9.855152848911537e-07
aF2.1808218450315335e-09
aF2.566606526561508e-07
aF3.035865362159684e-09
ag352
ag352
aF0.10045543626550599
aF0.00033422332026945237
aF0.10547969839249334
aF0.005672749809977351
aF0.10576996097541826
aF0.0008518028032289718
aF0.08159867423237724
aF0.0017610091011343145
aF0.01252652332747245
aF3.293167183956614e-05
aF0.024968049345192853
aF0.0012881326414761738
aF0.019254841879456856
aF3.247551679099253e-05
aF0.013272331707726136
aF8.832049928029138e-05
ag352
ag352
aF0.10011074711433439
aF0.00034147288441710135
aF0.1050138926401167
aF0.0057202410490345855
aF0.10569991148744712
aF0.000844888634583509
aF0.08150725993324343
aF0.0017484715733973068
aF0.012100477266156933
aF2.7827646420277098e-05
aF0.024230630768919306
aF0.0012200534450016447
aF0.018920819447204626
aF1.565008004115552e-05
aF0.013003534163252927
aF9.883129308598246e-05
ag352
ag352
aF0.10077609695833571
aF0.00033118930184483284
aF0.10601827002489328
aF0.005679283393126919
aF0.10586183751657761
aF0.0008517170317487271
aF0.08166141939337024
aF0.0017744223345101976
aF0.013006107194882733
aF3.7313378763827316e-05
aF0.025593439017313233
aF0.0013636455544956897
aF0.01983795493026971
aF3.9803620381979314e-05
aF0.013702459114506538
aF7.738155656543752e-05
ag352
ag352
aF0.10066735767499287
aF0.0003349161681591681
aF0.10569836284623856
aF0.0056844618096472815
aF0.10598938215546415
aF0.0008536404513634722
aF0.08176848997538834
aF0.0017647478567297413
aF0.012552533695223099
aF3.299902667276935e-05
aF0.025018627907032777
aF0.0012907320081319644
aF0.01929411649198734
aF3.25418645593479e-05
aF0.01329938816251279
aF8.849551084899887e-05
ag352
ag352
aF0.10024325234966935
aF0.0003335304182309149
aF0.10526114664343601
aF0.00566104127431818
aF0.10555057890691995
aF0.0008499648236347106
aF0.08142887562157737
aF0.0017572713795504474
aF0.01250048000832765
aF3.28643249597996e-05
aF0.02491750680048694
aF0.0012855352483942804
aF0.019215578674891313
aF3.240923273553912e-05
aF0.013245282686247233
aF8.814593917646848e-05
ag352
ag352
aF0.1007197477735085
aF0.00033511478920516115
aF0.10575052280379148
aF0.00568693410095178
aF0.10604890324207301
aF0.0008538454277858471
aF0.08181611534729856
aF0.0017655127574211322
aF0.01255166436144528
aF3.2997766497984674e-05
aF0.025018160821491147
aF0.0012907179547074848
aF0.019293486810790038
aF3.2540695935243776e-05
aF0.01329896959707819
aF8.84977606492168e-05
ag352
ag352
aF0.10019147237147528
aF0.0003333330271184629
aF0.10520922117171573
aF0.00565858320402225
aF0.10549138493991293
aF0.0008497626248328593
aF0.08138152390784636
aF0.0017565114307221174
aF0.012501407497543532
aF3.286564344145681e-05
aF0.024917988105963997
aF0.001285549920037573
aF0.01921623568990955
aF3.241040298924179e-05
aF0.013245720523025056
aF8.814341561699897e-05
ag352
ag352
aF0.10167805027877361
aF0.0003379990343011194
aF0.10676514517153694
aF0.00574091935641047
aF0.10706784573361541
aF0.0008620442398922367
aF0.0826051331819143
aF0.001782330605878506
aF0.012670006072110086
aF3.330888158384429e-05
aF0.025254041248504302
aF0.0013028873185740972
aF0.019475392904526316
aF3.2847501591634e-05
aF0.01342435717651606
aF8.933215010416516e-05
ag352
ag352
aF0.0992373187428598
aF0.0003304493043092281
aF0.10420024017719383
aF0.00560501474049593
aF0.10447773682172799
aF0.0008416153296662708
aF0.08059639598205628
aF0.0017397993941827086
aF0.012383857658257462
aF3.255661015017823e-05
aF0.024683686048553845
aF0.001273461986216962
aF0.019035546802080104
aF3.2105650291328786e-05
aF0.013121171961671724
aF8.731460939322373e-05
ag352
ag352
aF0.09450238074811058
aF0.0003216824211358027
aF0.1004833275138138
aF0.005612619285904774
aF0.10065295886076124
aF0.0008379001497284491
aF0.0771444263235467
aF0.0016808294144432174
aF0.005374999600005134
aF1.707219745873825e-05
aF0.01689360613023151
aF0.0007688207633033343
aF0.011222694094493448
aF3.594874267287937e-05
aF0.0076278787655333375
aF5.552192455432807e-05
ag352
ag352
aF0.10661205566271416
aF0.00035235505699537586
aF0.10968510032965241
aF0.005944160648350916
aF0.11137082329575275
aF0.0008759261714074373
aF0.08585763567086022
aF0.001895426788819898
aF0.02439910125399896
aF6.246954926670668e-05
aF0.03556386474601197
aF0.0019047737242966092
aF0.03127270171939985
aF5.262725150609772e-05
aF0.02202784981972987
aF0.0003131811352784969
ag352
ag352
aF0.11649769026775697
aF0.0004020206954437765
aF0.1024582839363595
aF0.005176476169348717
aF0.10510333962681788
aF0.0008806456422442613
aF0.08271923419154079
aF0.0018024475592954231
aF0.014875305219104245
aF4.074152584347418e-05
aF0.024192730554162843
aF0.001215693488194533
aF0.0193704947453643
aF4.634199396455735e-05
aF0.013568191403663693
aF8.178262393064353e-05
ag352
ag352
aF0.11649769026775697
aF0.0004020206954437765
aF0.1024582839363595
aF0.005176476169348717
aF0.10510333962681788
aF0.0008806456422442613
aF0.08271923419154079
aF0.0018024475592954231
aF0.014875305219104245
aF4.074152584347418e-05
aF0.024192730554162843
aF0.001215693488194533
aF0.0193704947453643
aF4.634199396455735e-05
aF0.013568191403663693
aF8.178262393064353e-05
ag352
ag352
aF0.1205378981989408
aF0.0004199844994825277
aF0.10600631926190782
aF0.005427391501003594
aF0.10548845309200684
aF0.0008746934917179022
aF0.08367794518582583
aF0.0018636508832330862
aF0.015223680623043377
aF4.100045060765115e-05
aF0.025130676976823273
aF0.0013182500371988896
aF0.01932534063718196
aF3.149138098304401e-05
aF0.01364633282444237
aF8.296344580661673e-05
ag352
ag352
aF0.1205378981989408
aF0.0004199844994825277
aF0.10600631926190782
aF0.005427391501003594
aF0.10548845309200684
aF0.0008746934917179022
aF0.08367794518582583
aF0.0018636508832330862
aF0.015223680623043377
aF4.100045060765115e-05
aF0.025130676976823273
aF0.0013182500371988896
aF0.01932534063718196
aF3.149138098304401e-05
aF0.01364633282444237
aF8.296344580661673e-05
ag352
ag352
aF0.0970692231502391
aF0.00032303483670126864
aF0.10621123442899527
aF0.005710437959997465
aF0.10558911266331628
aF0.0008571935604966928
aF0.08060528281460994
aF0.001705966243685324
aF0.012257423607228975
aF3.289595000204764e-05
aF0.025126998146562288
aF0.0012584973774288008
aF0.019350387926395637
aF4.6254258939889246e-05
aF0.013202018795633262
aF8.757091952358885e-05
ag352
ag352
aF0.0970692231502391
aF0.00032303483670126864
aF0.10621123442899527
aF0.005710437959997465
aF0.10558911266331628
aF0.0008571935604966928
aF0.08060528281460994
aF0.001705966243685324
aF0.012257423607228975
aF3.289595000204764e-05
aF0.025126998146562288
aF0.0012584973774288008
aF0.019350387926395637
aF4.6254258939889246e-05
aF0.013202018795633262
aF8.757091952358885e-05
ag352
ag352
aF0.10352911949252792
aF0.00034512316387935526
aF0.10497873833556716
aF0.0056363740149185226
aF0.1063065612560113
aF0.0008501408547388472
aF0.08269196964555815
aF0.001818512890828331
aF0.012781133175330058
aF3.271254205353728e-05
aF0.02482874194485474
aF0.0013115135013431127
aF0.019250904163970007
aF2.069823762090865e-05
aF0.01336435136465981
aF8.892934526597255e-05
ag352
ag352
aF0.10352911949252792
aF0.00034512316387935526
aF0.10497873833556716
aF0.0056363740149185226
aF0.1063065612560113
aF0.0008501408547388472
aF0.08269196964555815
aF0.001818512890828331
aF0.012781133175330058
aF3.271254205353728e-05
aF0.02482874194485474
aF0.0013115135013431127
aF0.019250904163970007
aF2.069823762090865e-05
aF0.01336435136465981
aF8.892934526597255e-05
ag352
ag352
aF0.08403996487384016
aF0.000267273528464688
aF0.09885503634033634
aF0.005463256288913784
aF0.10598659519956882
aF0.0008328731284821389
aF0.07946730791489588
aF0.0016690310469716985
aF0.01034625218374205
aF2.6520981851095934e-05
aF0.023397960881013983
aF0.0011966006078860357
aF0.019195013643387025
aF3.330468806860314e-05
aF0.012886418093338929
aF8.926383244379149e-05
ag352
ag352
aF0.08403996487384016
aF0.000267273528464688
aF0.09885503634033634
aF0.005463256288913784
aF0.10598659519956882
aF0.0008328731284821389
aF0.07946730791489588
aF0.0016690310469716985
aF0.01034625218374205
aF2.6520981851095934e-05
aF0.023397960881013983
aF0.0011966006078860357
aF0.019195013643387025
aF3.330468806860314e-05
aF0.012886418093338929
aF8.926383244379149e-05
ag352
ag352
aF0.08653943347700443
aF0.0002742391831642188
aF0.09658135741285548
aF0.005309460918773884
aF0.10630488706097702
aF0.0008311153553833975
aF0.08052904775358312
aF0.0017201161268711666
aF0.010541284338277694
aF2.6346507949232627e-05
aF0.022815926257628752
aF0.0011885236483842015
aF0.01914229696471974
aF2.2278625433835428e-05
aF0.012968423260557738
aF8.963292193872766e-05
ag352
ag352
aF0.08653943347700443
aF0.0002742391831642188
aF0.09658135741285548
aF0.005309460918773884
aF0.10630488706097702
aF0.0008311153553833975
aF0.08052904775358312
aF0.0017201161268711666
aF0.010541284338277694
aF2.6346507949232627e-05
aF0.022815926257628752
aF0.0011885236483842015
aF0.01914229696471974
aF2.2278625433835428e-05
aF0.012968423260557738
aF8.963292193872766e-05
ag352
ag352
aF0.1039533413723786
aF0.00035070838887140554
aF0.10940009487417514
aF0.005828121651886225
aF0.10660844770140927
aF0.0008596756052495309
aF0.08307570396261471
aF0.0018030097966726002
aF0.0130286884603879
aF3.488689324349054e-05
aF0.0259421918786823
aF0.0013350377982846232
aF0.01942388012475537
aF3.227294889384429e-05
aF0.013501846099249547
aF8.939754045085652e-05
ag352
ag352
aF0.09656246490765548
aF0.00031664036784811403
aF0.10189893447268573
aF0.005449815349791647
aF0.10472445089055187
aF0.0008357974541045527
aF0.08033042314899211
aF0.001724526025942755
aF0.011984467204660773
aF3.0646075776992866e-05
aF0.024168084841241378
aF0.0012450261894277788
aF0.019071902779905284
aF3.2711713403911716e-05
aF0.013075420077341308
aF8.717167211681428e-05
ag352
ag352
aF0.1039533413723786
aF0.00035070838887140554
aF0.10940009487417514
aF0.005828121651886225
aF0.10660844770140927
aF0.0008596756052495309
aF0.08307570396261471
aF0.0018030097966726002
aF0.0130286884603879
aF3.488689324349054e-05
aF0.0259421918786823
aF0.0013350377982846232
aF0.01942388012475537
aF3.227294889384429e-05
aF0.013501846099249547
aF8.939754045085652e-05
ag352
ag352
aF0.09656246490765548
aF0.00031664036784811403
aF0.10189893447268573
aF0.005449815349791647
aF0.10472445089055187
aF0.0008357974541045527
aF0.08033042314899211
aF0.001724526025942755
aF0.011984467204660773
aF3.0646075776992866e-05
aF0.024168084841241378
aF0.0012450261894277788
aF0.019071902779905284
aF3.2711713403911716e-05
aF0.013075420077341308
aF8.717167211681428e-05
ag352
ag352
aF0.10189376045354513
aF0.0003335934856638037
aF0.10768563407612637
aF0.005575033146092049
aF0.1058569226140093
aF0.0008512374723417627
aF0.0831194805345214
aF0.0018226112507946008
aF0.012741717209249107
aF3.2167907996099985e-05
aF0.02539679012596549
aF0.0012948481362732413
aF0.01920947667739095
aF3.21867548685908e-05
aF0.013498219503656698
aF8.661212283842337e-05
ag352
ag352
aF0.09865973017453732
aF0.0003335556280843127
aF0.10275778792074845
aF0.005770174991122391
aF0.10563802455420582
aF0.000848239250828541
aF0.07968466283698536
aF0.0016778648490011101
aF0.012261658697286423
aF3.375363569962523e-05
aF0.02445509681945532
aF0.0012872545182422937
aF0.01933242731503513
aF3.197590199694894e-05
aF0.01300838620546011
aF9.021907958438557e-05
ag352
ag352
aF0.10189376045354513
aF0.0003335934856638037
aF0.10768563407612637
aF0.005575033146092049
aF0.1058569226140093
aF0.0008512374723417627
aF0.0831194805345214
aF0.0018226112507946008
aF0.012741717209249107
aF3.2167907996099985e-05
aF0.02539679012596549
aF0.0012948481362732413
aF0.01920947667739095
aF3.21867548685908e-05
aF0.013498219503656698
aF8.661212283842337e-05
ag352
ag352
aF0.09865973017453732
aF0.0003335556280843127
aF0.10275778792074845
aF0.005770174991122391
aF0.10563802455420582
aF0.000848239250828541
aF0.07968466283698536
aF0.0016778648490011101
aF0.012261658697286423
aF3.375363569962523e-05
aF0.02445509681945532
aF0.0012872545182422937
aF0.01933242731503513
aF3.197590199694894e-05
aF0.01300838620546011
aF9.021907958438557e-05
ag352
ag352
aF0.10037245284519176
aF0.0003309858462415625
aF0.10435783723015614
aF0.005853276880493225
aF0.10695112264397441
aF0.000829093368773636
aF0.08100676287605889
aF0.0017367241950872142
aF0.012489601209143974
aF3.858554144902932e-05
aF0.02533465584867481
aF0.0012308856826457725
aF0.01879959205212445
aF3.611943682924176e-05
aF0.013190688822708787
aF9.588627354604731e-05
ag352
ag352
aF0.10101188442923589
aF0.0003535973091463274
aF0.10555660171503815
aF0.006301618953983238
aF0.10512108702293363
aF0.0009835269231621316
aF0.08203550417794665
aF0.0019134211226206075
aF0.012670257599898779
aF2.489310776675347e-05
aF0.024163214663369518
aF0.0015250977135140794
aF0.019988440702296387
aF3.503800357444877e-05
aF0.012972809912817134
aF7.42128305195135e-05
ag352
ag352
aF0.10037245284519176
aF0.0003309858462415625
aF0.10435783723015614
aF0.005853276880493225
aF0.10695112264397441
aF0.000829093368773636
aF0.08100676287605889
aF0.0017367241950872142
aF0.012489601209143974
aF3.858554144902932e-05
aF0.02533465584867481
aF0.0012308856826457725
aF0.01879959205212445
aF3.611943682924176e-05
aF0.013190688822708787
aF9.588627354604731e-05
ag352
ag352
aF0.10101188442923589
aF0.0003535973091463274
aF0.10555660171503815
aF0.006301618953983238
aF0.10512108702293363
aF0.0009835269231621316
aF0.08203550417794665
aF0.0019134211226206075
aF0.012670257599898779
aF2.489310776675347e-05
aF0.024163214663369518
aF0.0015250977135140794
aF0.019988440702296387
aF3.503800357444877e-05
aF0.012972809912817134
aF7.42128305195135e-05
ag352
ag352
aF0.10056021554626733
aF0.0003341889204800378
aF0.10539333339375347
aF0.005670554252258224
aF0.10586567350066026
aF0.0008508756946559198
aF0.08164330560766939
aF0.001762206149714439
aF0.012538238515532735
aF3.259370973719984e-05
aF0.024940518596298825
aF0.0012882576349063483
aF0.019267364937656135
aF3.25143480297984e-05
aF0.013277791032035113
aF8.857015015545327e-05
ag352
ag352
aF0.10056021554626733
aF0.0003341889204800378
aF0.10539333339375347
aF0.005670554252258224
aF0.10586567350066026
aF0.0008508756946559198
aF0.08164330560766939
aF0.001762206149714439
aF0.012538238515532735
aF3.259370973719984e-05
aF0.024940518596298825
aF0.0012882576349063483
aF0.019267364937656135
aF3.25143480297984e-05
aF0.013277791032035113
aF8.857015015545327e-05
ag352
ag352
aF0.10030014596311494
aF0.0003336543024408729
aF0.10531560830488854
aF0.005665144750366759
aF0.10585483678494582
aF0.0008531732327561885
aF0.08151375562118596
aF0.0017595041596813025
aF0.01250696327027902
aF3.2744989826538994e-05
aF0.024930087486398935
aF0.001286240925122738
aF0.01925731124093508
aF3.2293337907371555e-05
aF0.013254341569188604
aF8.816813292185985e-05
ag352
ag352
aF0.10030014596311494
aF0.0003336543024408729
aF0.10531560830488854
aF0.005665144750366759
aF0.10585483678494582
aF0.0008531732327561885
aF0.08151375562118596
aF0.0017595041596813025
aF0.01250696327027902
aF3.2744989826538994e-05
aF0.024930087486398935
aF0.001286240925122738
aF0.01925731124093508
aF3.2293337907371555e-05
aF0.013254341569188604
aF8.816813292185985e-05
ag352
ag352
aF0.10064732070782452
aF0.00033476255076684837
aF0.10550381525579049
aF0.005669852180974082
aF0.10581890669806597
aF0.0008523524909383845
aF0.08147874405970411
aF0.0017592638579798556
aF0.012539814475962623
aF3.313348347249171e-05
aF0.024975523150586786
aF0.0012907761398410727
aF0.01927058418157855
aF3.293414778974891e-05
aF0.013257155709582552
aF8.873619785598783e-05
ag352
ag352
aF0.10064732070782452
aF0.00033476255076684837
aF0.10550381525579049
aF0.005669852180974082
aF0.10581890669806597
aF0.0008523524909383845
aF0.08147874405970411
aF0.0017592638579798556
aF0.012539814475962623
aF3.313348347249171e-05
aF0.024975523150586786
aF0.0012907761398410727
aF0.01927058418157855
aF3.293414778974891e-05
aF0.013257155709582552
aF8.873619785598783e-05
ag352
ag352
aF0.10070353188801788
aF0.0003347201861784987
aF0.10569205645919279
aF0.005688272299894546
aF0.10568070981526918
aF0.0008531351589925653
aF0.08169040262585019
aF0.001761880694253632
aF0.012554889014277508
aF3.277757805742998e-05
aF0.025017720742302137
aF0.0012902557941364002
aF0.01922395858206056
aF3.213741977940434e-05
aF0.013286160926836228
aF8.829448998312786e-05
ag352
ag352
aF0.10070353188801788
aF0.0003347201861784987
aF0.10569205645919279
aF0.005688272299894546
aF0.10568070981526918
aF0.0008531351589925653
aF0.08169040262585019
aF0.001761880694253632
aF0.012554889014277508
aF3.277757805742998e-05
aF0.025017720742302137
aF0.0012902557941364002
aF0.01922395858206056
aF3.213741977940434e-05
aF0.013286160926836228
aF8.829448998312786e-05
ag352
ag352
aF0.10065399585364987
aF0.0003351668187735213
aF0.10523071892190866
aF0.005647124527448232
aF0.10581075319781402
aF0.000850897623141701
aF0.08149148256109823
aF0.0017598587556265654
aF0.012550609251392076
aF3.3211490148094303e-05
aF0.024894698437422022
aF0.0012881437999867002
aF0.019286127975323735
aF3.3394416009880663e-05
aF0.01324838633655488
aF8.851870555631466e-05
ag352
ag352
aF0.10065399585364987
aF0.0003351668187735213
aF0.10523071892190866
aF0.005647124527448232
aF0.10581075319781402
aF0.000850897623141701
aF0.08149148256109823
aF0.0017598587556265654
aF0.012550609251392076
aF3.3211490148094303e-05
aF0.024894698437422022
aF0.0012881437999867002
aF0.019286127975323735
aF3.3394416009880663e-05
aF0.01324838633655488
aF8.851870555631466e-05
ag352
ag352
aF0.10073650212840311
aF0.0003346294420096073
aF0.10558683483629379
aF0.005668493399418846
aF0.10569308851292931
aF0.0008519090358438303
aF0.08157183032727636
aF0.0017610513117715383
aF0.012559363140764886
aF3.273190865768505e-05
aF0.024998174666612846
aF0.001290474647411375
aF0.01924400887032594
aF3.212490519227315e-05
aF0.013263000061786987
aF8.80263159795322e-05
ag352
ag352
aF0.10073650212840311
aF0.0003346294420096073
aF0.10558683483629379
aF0.005668493399418846
aF0.10569308851292931
aF0.0008519090358438303
aF0.08157183032727636
aF0.0017610513117715383
aF0.012559363140764886
aF3.273190865768505e-05
aF0.024998174666612846
aF0.001290474647411375
aF0.01924400887032594
aF3.212490519227315e-05
aF0.013263000061786987
aF8.80263159795322e-05
ag352
ag352
aF0.10108984946872172
aF0.00033563255869609583
aF0.10525712962658475
aF0.005672494017120975
aF0.10572184135366118
aF0.0008530811766094276
aF0.08152558008190254
aF0.0017617413264455618
aF0.01259235902515626
aF3.305141134725013e-05
aF0.024903469599396797
aF0.001282901325776278
aF0.019233786522407544
aF3.1995014262977566e-05
aF0.013252834873621645
aF8.78883413700321e-05
ag352
ag352
aF0.10108984946872172
aF0.00033563255869609583
aF0.10525712962658475
aF0.005672494017120975
aF0.10572184135366118
aF0.0008530811766094276
aF0.08152558008190254
aF0.0017617413264455618
aF0.01259235902515626
aF3.305141134725013e-05
aF0.024903469599396797
aF0.001282901325776278
aF0.019233786522407544
aF3.1995014262977566e-05
aF0.013252834873621645
aF8.78883413700321e-05
ag352
ag352
aF0.10111097648516743
aF0.00033585291336236587
aF0.10527326931284282
aF0.005661965223592721
aF0.10563525750537762
aF0.0008493636859337197
aF0.08137863137457414
aF0.0017591263642418042
aF0.012600095964716005
aF3.2986926195922216e-05
aF0.024912169514212195
aF0.0012852191208999391
aF0.01923083998786814
aF3.234199201655558e-05
aF0.013231410440616077
aF8.775347174728301e-05
ag352
ag352
aF0.10111097648516743
aF0.00033585291336236587
aF0.10527326931284282
aF0.005661965223592721
aF0.10563525750537762
aF0.0008493636859337197
aF0.08137863137457414
aF0.0017591263642418042
aF0.012600095964716005
aF3.2986926195922216e-05
aF0.024912169514212195
aF0.0012852191208999391
aF0.01923083998786814
aF3.234199201655558e-05
aF0.013231410440616077
aF8.775347174728301e-05
ag352
ag352
aF0.10038366513976046
aF0.0003336942577691662
aF0.10559421146117333
aF0.005677374788794123
aF0.10578617844246893
aF0.0008499681992054246
aF0.0818099043599768
aF0.0017638588228848643
aF0.012516950869206615
aF3.271788037254971e-05
aF0.025010034577369094
aF0.0012884619486891445
aF0.019250488288886286
aF3.2180449345055204e-05
aF0.01331528234701034
aF8.856890381132383e-05
ag352
ag352
aF0.10038366513976046
aF0.0003336942577691662
aF0.10559421146117333
aF0.005677374788794123
aF0.10578617844246893
aF0.0008499681992054246
aF0.0818099043599768
aF0.0017638588228848643
aF0.012516950869206615
aF3.271788037254971e-05
aF0.025010034577369094
aF0.0012884619486891445
aF0.019250488288886286
aF3.2180449345055204e-05
aF0.01331528234701034
aF8.856890381132383e-05
ag352
ag352
aF0.10047123225573619
aF0.0003334605861130267
aF0.1053309703726556
aF0.005660160313669125
aF0.1056859330309326
aF0.0008417714122648601
aF0.0813902510490395
aF0.0017570853096448734
aF0.012529025417844486
aF3.2491487329093506e-05
aF0.024951851483829564
aF0.0012876551173122276
aF0.019254701430169014
aF3.264074495731997e-05
aF0.013246854261094934
aF8.840644419872386e-05
ag352
ag352
aF0.10047123225573619
aF0.0003334605861130267
aF0.1053309703726556
aF0.005660160313669125
aF0.1056859330309326
aF0.0008417714122648601
aF0.0813902510490395
aF0.0017570853096448734
aF0.012529025417844486
aF3.2491487329093506e-05
aF0.024951851483829564
aF0.0012876551173122276
aF0.019254701430169014
aF3.264074495731997e-05
aF0.013246854261094934
aF8.840644419872386e-05
ag352
ag352
aF0.099861631337833
aF0.00033316431337655425
aF0.10575654880176605
aF0.0056909601006524205
aF0.10570603552395332
aF0.0008552318523952953
aF0.08159373009015461
aF0.0017598220448102908
aF0.012460640123610353
aF3.316939539761798e-05
aF0.025033546865949382
aF0.0012924296880760862
aF0.019244156038034022
aF3.243371447288034e-05
aF0.013277620565979406
aF8.867200538823503e-05
ag352
ag352
aF0.099861631337833
aF0.00033316431337655425
aF0.10575654880176605
aF0.0056909601006524205
aF0.10570603552395332
aF0.0008552318523952953
aF0.08159373009015461
aF0.0017598220448102908
aF0.012460640123610353
aF3.316939539761798e-05
aF0.025033546865949382
aF0.0012924296880760862
aF0.019244156038034022
aF3.243371447288034e-05
aF0.013277620565979406
aF8.867200538823503e-05
ag352
ag352
aF0.10073264117540266
aF0.00033451996688605204
aF0.1054769111503786
aF0.005674319485165244
aF0.10577127834394381
aF0.0008497937183508651
aF0.08164962727793988
aF0.0017620581701287509
aF0.012559293020454332
aF3.254492236461841e-05
aF0.0249821606071952
aF0.0012868414436216166
aF0.019251041647849836
aF3.2191450202069056e-05
aF0.013280434292971745
aF8.834631859465642e-05
ag352
ag352
aF0.10073264117540266
aF0.00033451996688605204
aF0.1054769111503786
aF0.005674319485165244
aF0.10577127834394381
aF0.0008497937183508651
aF0.08164962727793988
aF0.0017620581701287509
aF0.012559293020454332
aF3.254492236461841e-05
aF0.0249821606071952
aF0.0012868414436216166
aF0.019251041647849836
aF3.2191450202069056e-05
aF0.013280434292971745
aF8.834631859465642e-05
ag352
ag352
aF0.10026219884669954
aF0.0003339350126088675
aF0.1058062250412957
aF0.005696704720433961
aF0.10584303523141154
aF0.0008557179670312326
aF0.08180538663177123
aF0.0017643937651505351
aF0.012508096984611826
aF3.281844473908049e-05
aF0.025036142819618225
aF0.0012927161237532648
aF0.019264174752466355
aF3.2398394301732755e-05
aF0.013309680104386514
aF8.871326516601254e-05
ag352
ag352
aF0.10026219884669954
aF0.0003339350126088675
aF0.1058062250412957
aF0.005696704720433961
aF0.10584303523141154
aF0.0008557179670312326
aF0.08180538663177123
aF0.0017643937651505351
aF0.012508096984611826
aF3.281844473908049e-05
aF0.025036142819618225
aF0.0012927161237532648
aF0.019264174752466355
aF3.2398394301732755e-05
aF0.013309680104386514
aF8.871326516601254e-05
ag352
ag352
aF0.10035171550463459
aF0.0003348620436670986
aF0.10572058151615003
aF0.005690381514292957
aF0.10573685924762131
aF0.0008541292042709064
aF0.08157516623865421
aF0.001759407045191278
aF0.012520230866010859
aF3.328991751237789e-05
aF0.025012252501286154
aF0.0012909157800302471
aF0.01923842010650011
aF3.2399550466719095e-05
aF0.013263787311149798
aF8.819004019361426e-05
ag352
ag352
aF0.10035171550463459
aF0.0003348620436670986
aF0.10572058151615003
aF0.005690381514292957
aF0.10573685924762131
aF0.0008541292042709064
aF0.08157516623865421
aF0.001759407045191278
aF0.012520230866010859
aF3.328991751237789e-05
aF0.025012252501286154
aF0.0012909157800302471
aF0.01923842010650011
aF3.2399550466719095e-05
aF0.013263787311149798
aF8.819004019361426e-05
ag352
ag352
aF0.10045157032763677
aF0.0003347040197746846
aF0.10589777663461863
aF0.005705426598563699
aF0.10569839774177697
aF0.0008570827692153133
aF0.08203215272289104
aF0.0017665246854118928
aF0.012526068933679418
aF3.326894148705937e-05
aF0.025064446279172037
aF0.0012925160794050993
aF0.019219470353876087
aF3.225560997568209e-05
aF0.013343683299684569
aF8.88496161807203e-05
ag352
ag352
aF0.10045157032763677
aF0.0003347040197746846
aF0.10589777663461863
aF0.005705426598563699
aF0.10569839774177697
aF0.0008570827692153133
aF0.08203215272289104
aF0.0017665246854118928
aF0.012526068933679418
aF3.326894148705937e-05
aF0.025064446279172037
aF0.0012925160794050993
aF0.019219470353876087
aF3.225560997568209e-05
aF0.013343683299684569
aF8.88496161807203e-05
ag352
ag352
aF0.10013029047837467
aF0.00033318724883053184
aF0.10564239996768189
aF0.005679541760800653
aF0.1058941980952787
aF0.0008471217230127834
aF0.0814985886904246
aF0.0017615511098656898
aF0.012498527542043407
aF3.271732064932015e-05
aF0.025015875756552314
aF0.0012895969094685262
aF0.019290486847349828
aF3.241129051306824e-05
aF0.013262829107060732
aF8.814881250603437e-05
ag352
ag352
aF0.10013029047837467
aF0.00033318724883053184
aF0.10564239996768189
aF0.005679541760800653
aF0.1058941980952787
aF0.0008471217230127834
aF0.0814985886904246
aF0.0017615511098656898
aF0.012498527542043407
aF3.271732064932015e-05
aF0.025015875756552314
aF0.0012895969094685262
aF0.019290486847349828
aF3.241129051306824e-05
aF0.013262829107060732
aF8.814881250603437e-05
ag352
ag352
aF0.10012742885284749
aF0.0003340739295157384
aF0.10573505483309428
aF0.005678158131944938
aF0.10586242392162158
aF0.0008581535624555914
aF0.08152333519765555
aF0.0017594071311037229
aF0.01249165407933009
aF3.3253017036538983e-05
aF0.02503463756862418
aF0.0012904178313227527
aF0.01927688038340047
aF3.253334697200207e-05
aF0.013253385843976877
aF8.841124984942418e-05
ag352
ag352
aF0.10012742885284749
aF0.0003340739295157384
aF0.10573505483309428
aF0.005678158131944938
aF0.10586242392162158
aF0.0008581535624555914
aF0.08152333519765555
aF0.0017594071311037229
aF0.01249165407933009
aF3.3253017036538983e-05
aF0.02503463756862418
aF0.0012904178313227527
aF0.01927688038340047
aF3.253334697200207e-05
aF0.013253385843976877
aF8.841124984942418e-05
ag352
ag352
aF0.10085919902301199
aF0.00033530676811191213
aF0.1049935369663512
aF0.005653616438160095
aF0.10574259701649744
aF0.0008509543885608092
aF0.0813230051512142
aF0.001757762367856327
aF0.012566777852186685
aF3.3221196176013476e-05
aF0.024839243036498548
aF0.0012801537973443251
aF0.019242317951650944
aF3.215032503387719e-05
aF0.01322142784512024
aF8.775300593591593e-05
ag352
ag352
aF0.10085919902301199
aF0.00033530676811191213
aF0.1049935369663512
aF0.005653616438160095
aF0.10574259701649744
aF0.0008509543885608092
aF0.0813230051512142
aF0.001757762367856327
aF0.012566777852186685
aF3.3221196176013476e-05
aF0.024839243036498548
aF0.0012801537973443251
aF0.019242317951650944
aF3.215032503387719e-05
aF0.01322142784512024
aF8.775300593591593e-05
ag352
ag352
aF0.10069205387747535
aF0.0003346490994747421
aF0.10520225777618969
aF0.005665103850715832
aF0.10564119924463482
aF0.0008518486277539348
aF0.08165867352902333
aF0.0017617588277620319
aF0.012551596786582311
aF3.302897150013688e-05
aF0.024882935326479234
aF0.0012842677618184037
aF0.01921180156450146
aF3.271770374407731e-05
aF0.013276248461880016
aF8.856813998525196e-05
ag352
ag352
aF0.10069205387747535
aF0.0003346490994747421
aF0.10520225777618969
aF0.005665103850715832
aF0.10564119924463482
aF0.0008518486277539348
aF0.08165867352902333
aF0.0017617588277620319
aF0.012551596786582311
aF3.302897150013688e-05
aF0.024882935326479234
aF0.0012842677618184037
aF0.01921180156450146
aF3.271770374407731e-05
aF0.013276248461880016
aF8.856813998525196e-05
ag352
ag352
aF0.10034571820660469
aF0.00033468716322989923
aF0.10548693680481884
aF0.005678467464275742
aF0.10593785692971294
aF0.0008622490401669642
aF0.0816698190012801
aF0.0017616651647152464
aF0.012513114223545277
aF3.347152658121768e-05
aF0.024963023403114293
aF0.0012873040934360627
aF0.019277240503939006
aF3.2555210016628365e-05
aF0.013271423528588613
aF8.817360036252861e-05
ag352
ag352
aF0.10034571820660469
aF0.00033468716322989923
aF0.10548693680481884
aF0.005678467464275742
aF0.10593785692971294
aF0.0008622490401669642
aF0.0816698190012801
aF0.0017616651647152464
aF0.012513114223545277
aF3.347152658121768e-05
aF0.024963023403114293
aF0.0012873040934360627
aF0.019277240503939006
aF3.2555210016628365e-05
aF0.013271423528588613
aF8.817360036252861e-05
ag352
ag352
aF0.10068168022028544
aF0.00033458410411747096
aF0.10513791288490482
aF0.005657124878210313
aF0.10572027389287902
aF0.0008500348451741373
aF0.08147360840016638
aF0.001759161743961966
aF0.012548634701645571
aF3.275173957141245e-05
aF0.02487683831710541
aF0.0012841183512569997
aF0.01924587195099692
aF3.255896886906247e-05
aF0.013243444269005101
aF8.794783879782952e-05
ag352
ag352
aF0.10068168022028544
aF0.00033458410411747096
aF0.10513791288490482
aF0.005657124878210313
aF0.10572027389287902
aF0.0008500348451741373
aF0.08147360840016638
aF0.001759161743961966
aF0.012548634701645571
aF3.275173957141245e-05
aF0.02487683831710541
aF0.0012841183512569997
aF0.01924587195099692
aF3.255896886906247e-05
aF0.013243444269005101
aF8.794783879782952e-05
ag352
ag352
aF0.10037693624870724
aF0.00033386480000613346
aF0.10551898388487312
aF0.005666516495755812
aF0.1058895958345602
aF0.0008514995156036341
aF0.0818184416913751
aF0.0017642308196769787
aF0.01251702859923653
aF3.260635348653332e-05
aF0.024993481519662363
aF0.001290278266786903
aF0.01928384922772043
aF3.2774644738977655e-05
aF0.013310875675875395
aF8.856867468260999e-05
ag352
ag352
aF0.10037693624870724
aF0.00033386480000613346
aF0.10551898388487312
aF0.005666516495755812
aF0.1058895958345602
aF0.0008514995156036341
aF0.0818184416913751
aF0.0017642308196769787
aF0.01251702859923653
aF3.260635348653332e-05
aF0.024993481519662363
aF0.001290278266786903
aF0.01928384922772043
aF3.2774644738977655e-05
aF0.013310875675875395
aF8.856867468260999e-05
ag352
ag352
aF0.1004184228316166
aF0.0003342122286382455
aF0.10556139537427908
aF0.0056651013803949045
aF0.10576943339461958
aF0.0008498335762550681
aF0.08147485969734584
aF0.0017595282033326424
aF0.012525354004657882
aF3.28435112912371e-05
aF0.02499497917877305
aF0.0012906576997572942
aF0.019259591227218837
aF3.238201095030839e-05
aF0.013257166112272907
aF8.808398389601812e-05
ag352
ag352
aF0.1004184228316166
aF0.0003342122286382455
aF0.10556139537427908
aF0.0056651013803949045
aF0.10576943339461958
aF0.0008498335762550681
aF0.08147485969734584
aF0.0017595282033326424
aF0.012525354004657882
aF3.28435112912371e-05
aF0.02499497917877305
aF0.0012906576997572942
aF0.019259591227218837
aF3.238201095030839e-05
aF0.013257166112272907
aF8.808398389601812e-05
ag352
ag352
aF0.1004645850178994
aF0.00033401147381613124
aF0.10508078625048067
aF0.005649480626563511
aF0.10604904948182191
aF0.0008500070069740787
aF0.08141123749599118
aF0.0017602635777135712
aF0.012524321478827054
aF3.274401551308213e-05
aF0.024879339241286318
aF0.0012843733422964656
aF0.019307987942898324
aF3.282004834996367e-05
aF0.013238175064849724
aF8.843029202872086e-05
ag352
ag352
aF0.1004645850178994
aF0.00033401147381613124
aF0.10508078625048067
aF0.005649480626563511
aF0.10604904948182191
aF0.0008500070069740787
aF0.08141123749599118
aF0.0017602635777135712
aF0.012524321478827054
aF3.274401551308213e-05
aF0.024879339241286318
aF0.0012843733422964656
aF0.019307987942898324
aF3.282004834996367e-05
aF0.013238175064849724
aF8.843029202872086e-05
ag352
ag352
aF0.10043549662861655
aF0.0003350845863464041
aF0.10550529859014901
aF0.0056784358376055985
aF0.10588244828887645
aF0.0008609571778922626
aF0.08155661461791588
aF0.0017613970906867258
aF0.01251562238126843
aF3.3777701789164086e-05
aF0.02496321299825551
aF0.00128781234729447
aF0.019246426205541553
aF3.217939994859958e-05
aF0.013257510378749065
aF8.8055968055573e-05
ag352
ag352
aF0.10043549662861655
aF0.0003350845863464041
aF0.10550529859014901
aF0.0056784358376055985
aF0.10588244828887645
aF0.0008609571778922626
aF0.08155661461791588
aF0.0017613970906867258
aF0.01251562238126843
aF3.3777701789164086e-05
aF0.02496321299825551
aF0.00128781234729447
aF0.019246426205541553
aF3.217939994859958e-05
aF0.013257510378749065
aF8.8055968055573e-05
ag352
ag352
aF0.10040349992010633
aF0.0003338504307773442
aF0.10542061161085688
aF0.005676200995786663
aF0.10585602675310926
aF0.0008512159329114059
aF0.08158274209070451
aF0.0017607894965826123
aF0.012521267685016923
aF3.260408807410968e-05
aF0.024931877370873944
aF0.0012887505673035474
aF0.019279143938907325
aF3.283824783230265e-05
aF0.013275807010171461
aF8.854750488379005e-05
ag352
ag352
aF0.10040349992010633
aF0.0003338504307773442
aF0.10542061161085688
aF0.005676200995786663
aF0.10585602675310926
aF0.0008512159329114059
aF0.08158274209070451
aF0.0017607894965826123
aF0.012521267685016923
aF3.260408807410968e-05
aF0.024931877370873944
aF0.0012887505673035474
aF0.019279143938907325
aF3.283824783230265e-05
aF0.013275807010171461
aF8.854750488379005e-05
ag352
ag352
aF0.10031370110755611
aF0.0003332986676500405
aF0.10549236630699628
aF0.005669318935698875
aF0.10586928482967287
aF0.0008460281794907073
aF0.0819314741026295
aF0.0017636548236115016
aF0.012509724253585663
aF3.243575641042289e-05
aF0.02499746485485787
aF0.0012872002848547859
aF0.019252324513413223
aF3.2180464950279714e-05
aF0.013330271372979648
aF8.856373024393319e-05
ag352
ag352
aF0.10031370110755611
aF0.0003332986676500405
aF0.10549236630699628
aF0.005669318935698875
aF0.10586928482967287
aF0.0008460281794907073
aF0.0819314741026295
aF0.0017636548236115016
aF0.012509724253585663
aF3.243575641042289e-05
aF0.02499746485485787
aF0.0012872002848547859
aF0.019252324513413223
aF3.2180464950279714e-05
aF0.013330271372979648
aF8.856373024393319e-05
ag352
ag352
aF0.100515516765728
aF0.00033457460633678544
aF0.10543787762187531
aF0.005663835139618483
aF0.10577245399371911
aF0.0008541002224530266
aF0.08167181065631335
aF0.00176222290055224
aF0.01253766668912124
aF3.317082803438867e-05
aF0.024948948526533933
aF0.0012864898709106774
aF0.019278553068918618
aF3.2868182351646964e-05
aF0.013281445534571437
aF8.850808785468238e-05
ag352
ag352
aF0.100515516765728
aF0.00033457460633678544
aF0.10543787762187531
aF0.005663835139618483
aF0.10577245399371911
aF0.0008541002224530266
aF0.08167181065631335
aF0.00176222290055224
aF0.01253766668912124
aF3.317082803438867e-05
aF0.024948948526533933
aF0.0012864898709106774
aF0.019278553068918618
aF3.2868182351646964e-05
aF0.013281445534571437
aF8.850808785468238e-05
ag352
ag352
aF0.10029203762231166
aF0.0003331440374425001
aF0.10535995149249643
aF0.0056547420922486765
aF0.10605844780256819
aF0.0008537679268147761
aF0.08188315873361016
aF0.001765625323741258
aF0.012501245482214941
aF3.2897446074717475e-05
aF0.024948370810138256
aF0.0012882267555904508
aF0.01930998600901522
aF3.325873120331726e-05
aF0.013320809612517913
aF8.914983911972651e-05
ag352
ag352
aF0.10029203762231166
aF0.0003331440374425001
aF0.10535995149249643
aF0.0056547420922486765
aF0.10605844780256819
aF0.0008537679268147761
aF0.08188315873361016
aF0.001765625323741258
aF0.012501245482214941
aF3.2897446074717475e-05
aF0.024948370810138256
aF0.0012882267555904508
aF0.01930998600901522
aF3.325873120331726e-05
aF0.013320809612517913
aF8.914983911972651e-05
ag352
ag352
aF0.10039663160143086
aF0.0003352769674715056
aF0.10566259508521797
aF0.005700266885752018
aF0.10580749159462813
aF0.0008647948622355506
aF0.08165857162410121
aF0.0017618890566850794
aF0.012514838457158584
aF3.340489370824326e-05
aF0.02498338372615037
aF0.0012912210769691662
aF0.01923716349414149
aF3.2208185681419094e-05
aF0.01327919003909259
aF8.825216370087413e-05
ag352
ag352
aF0.10039663160143086
aF0.0003352769674715056
aF0.10566259508521797
aF0.005700266885752018
aF0.10580749159462813
aF0.0008647948622355506
aF0.08165857162410121
aF0.0017618890566850794
aF0.012514838457158584
aF3.340489370824326e-05
aF0.02498338372615037
aF0.0012912210769691662
aF0.01923716349414149
aF3.2208185681419094e-05
aF0.01327919003909259
aF8.825216370087413e-05
ag352
ag352
aF0.10027900767908476
aF0.0003333372555371479
aF0.1053334486818073
aF0.005655314978725661
aF0.10601522694676313
aF0.000848599214896188
aF0.08197863176047093
aF0.00176554996757941
aF0.012500232982408838
aF3.273208763819723e-05
aF0.024927844840718444
aF0.0012911432831962347
aF0.019309635927533462
aF3.3583135090388074e-05
aF0.01333934792696117
aF8.9352855536023e-05
ag352
ag352
aF0.10027900767908476
aF0.0003333372555371479
aF0.1053334486818073
aF0.005655314978725661
aF0.10601522694676313
aF0.000848599214896188
aF0.08197863176047093
aF0.00176554996757941
aF0.012500232982408838
aF3.273208763819723e-05
aF0.024927844840718444
aF0.0012911432831962347
aF0.019309635927533462
aF3.3583135090388074e-05
aF0.01333934792696117
aF8.9352855536023e-05
ag352
ag352
aF0.1004702978361856
aF0.00033507906824163436
aF0.10546564065448574
aF0.005678399735878567
aF0.10578365722862382
aF0.0008588227886701635
aF0.08150767153930065
aF0.0017602883455493784
aF0.012529177684664987
aF3.381852546331397e-05
aF0.024938501469670697
aF0.0012847778551620856
aF0.01927411285733786
aF3.281545499396801e-05
aF0.01324692973137125
aF8.82645126766896e-05
ag352
ag352
aF0.1004702978361856
aF0.00033507906824163436
aF0.10546564065448574
aF0.005678399735878567
aF0.10578365722862382
aF0.0008588227886701635
aF0.08150767153930065
aF0.0017602883455493784
aF0.012529177684664987
aF3.381852546331397e-05
aF0.024938501469670697
aF0.0012847778551620856
aF0.01927411285733786
aF3.281545499396801e-05
aF0.01324692973137125
aF8.82645126766896e-05
ag352
ag352
aF0.10036403158270868
aF0.000335660510420284
aF0.10554059329089352
aF0.005688892236468852
aF0.10595663618963409
aF0.0008739458877585305
aF0.0816274368459216
aF0.001759805954491574
aF0.01251191071946048
aF3.43071937752118e-05
aF0.024926032209679656
aF0.001284123815488777
aF0.0192708170557704
aF3.269244989569949e-05
aF0.01325681503423803
aF8.837598649903653e-05
ag352
ag352
aF0.10036403158270868
aF0.000335660510420284
aF0.10554059329089352
aF0.005688892236468852
aF0.10595663618963409
aF0.0008739458877585305
aF0.0816274368459216
aF0.001759805954491574
aF0.01251191071946048
aF3.43071937752118e-05
aF0.024926032209679656
aF0.001284123815488777
aF0.0192708170557704
aF3.269244989569949e-05
aF0.01325681503423803
aF8.837598649903653e-05
ag352
ag352
aF0.10038033888629899
aF0.00033352278615862875
aF0.10528018749100071
aF0.005645394403628384
aF0.10598745130410321
aF0.0008521353730322174
aF0.0817360127826038
aF0.0017634257733031792
aF0.012516580914559358
aF3.255708551033447e-05
aF0.024935459224692327
aF0.0012873506720748086
aF0.019303638071186156
aF3.289743280747891e-05
aF0.013296063472472797
aF8.863032544873058e-05
ag352
ag352
aF0.10038033888629899
aF0.00033352278615862875
aF0.10528018749100071
aF0.005645394403628384
aF0.10598745130410321
aF0.0008521353730322174
aF0.0817360127826038
aF0.0017634257733031792
aF0.012516580914559358
aF3.255708551033447e-05
aF0.024935459224692327
aF0.0012873506720748086
aF0.019303638071186156
aF3.289743280747891e-05
aF0.013296063472472797
aF8.863032544873058e-05
ag352
ag352
aF0.10045004739519744
aF0.0003343428114468814
aF0.105528809392477
aF0.005688473513348192
aF0.10567492611720469
aF0.0008509654984396726
aF0.08156990992141211
aF0.0017606213519805818
aF0.012525243768130568
aF3.279871573830806e-05
aF0.024957643935558063
aF0.0012893853253531302
aF0.01924347482390672
aF3.249665733518612e-05
aF0.013270191306683722
aF8.833757751539193e-05
ag352
ag352
aF0.10045004739519744
aF0.0003343428114468814
aF0.105528809392477
aF0.005688473513348192
aF0.10567492611720469
aF0.0008509654984396726
aF0.08156990992141211
aF0.0017606213519805818
aF0.012525243768130568
aF3.279871573830806e-05
aF0.024957643935558063
aF0.0012893853253531302
aF0.01924347482390672
aF3.249665733518612e-05
aF0.013270191306683722
aF8.833757751539193e-05
ag352
ag352
aF0.10057927562357573
aF0.00033421990919987865
aF0.10559123433141455
aF0.005685025767721987
aF0.10559089073586053
aF0.000849804525399567
aF0.08145748039495028
aF0.0017598823989307605
aF0.012542750683980333
aF3.28618565098492e-05
aF0.02500286782409248
aF0.0012871011055023464
aF0.019210290702910145
aF3.1732014653977834e-05
aF0.01324782219122497
aF8.792863874238968e-05
ag352
ag352
aF0.10057927562357573
aF0.00033421990919987865
aF0.10559123433141455
aF0.005685025767721987
aF0.10559089073586053
aF0.000849804525399567
aF0.08145748039495028
aF0.0017598823989307605
aF0.012542750683980333
aF3.28618565098492e-05
aF0.02500286782409248
aF0.0012871011055023464
aF0.019210290702910145
aF3.1732014653977834e-05
aF0.01324782219122497
aF8.792863874238968e-05
ag352
ag352
aF0.10045848956884748
aF0.0003343323887476115
aF0.10542299616422166
aF0.00566942198742611
aF0.10567570659594523
aF0.0008554628717532835
aF0.08166093776777503
aF0.001762100467412107
aF0.012525187432325105
aF3.310560066403804e-05
aF0.024938948303620118
aF0.0012928077281802448
aF0.01923720869922363
aF3.301667114123562e-05
aF0.013278693391119688
aF8.867098566271924e-05
ag352
ag352
aF0.10045848956884748
aF0.0003343323887476115
aF0.10542299616422166
aF0.00566942198742611
aF0.10567570659594523
aF0.0008554628717532835
aF0.08166093776777503
aF0.001762100467412107
aF0.012525187432325105
aF3.310560066403804e-05
aF0.024938948303620118
aF0.0012928077281802448
aF0.01923720869922363
aF3.301667114123562e-05
aF0.013278693391119688
aF8.867098566271924e-05
ag352
ag352
aF0.10047101123473659
aF0.0003348273955523848
aF0.1054727948600066
aF0.005682115097740614
aF0.10576873707569497
aF0.000857392860856259
aF0.08166519572469397
aF0.001762829829264695
aF0.01252985695421468
aF3.3316340905540624e-05
aF0.024937852575655114
aF0.0012893339229247587
aF0.019246127457011937
aF3.226792080981624e-05
aF0.013276994510270902
aF8.812318328346285e-05
ag352
ag352
aF0.10047101123473659
aF0.0003348273955523848
aF0.1054727948600066
aF0.005682115097740614
aF0.10576873707569497
aF0.000857392860856259
aF0.08166519572469397
aF0.001762829829264695
aF0.01252985695421468
aF3.3316340905540624e-05
aF0.024937852575655114
aF0.0012893339229247587
aF0.019246127457011937
aF3.226792080981624e-05
aF0.013276994510270902
aF8.812318328346285e-05
ag352
ag352
aF0.10043610441081309
aF0.00033396532020171863
aF0.10536418368537331
aF0.005652561610039815
aF0.10560088300630908
aF0.0008502959010513862
aF0.08160854137037207
aF0.0017608540913561547
aF0.012526565175307574
aF3.2679925255216035e-05
aF0.02495250747074628
aF0.001287641266801693
aF0.019249020159518144
aF3.2599628797568854e-05
aF0.01327193385450248
aF8.850925866051155e-05
ag352
ag352
aF0.10043610441081309
aF0.00033396532020171863
aF0.10536418368537331
aF0.005652561610039815
aF0.10560088300630908
aF0.0008502959010513862
aF0.08160854137037207
aF0.0017608540913561547
aF0.012526565175307574
aF3.2679925255216035e-05
aF0.02495250747074628
aF0.001287641266801693
aF0.019249020159518144
aF3.2599628797568854e-05
aF0.01327193385450248
aF8.850925866051155e-05
ag352
ag352
aF0.10042566899289522
aF0.0003339786604465085
aF0.10533073946230154
aF0.005656761824144469
aF0.10580818398595841
aF0.000851270944635791
aF0.08162228670227192
aF0.0017605645102967572
aF0.012518871500019272
aF3.302463556502372e-05
aF0.024953502112935146
aF0.001285111555566083
aF0.01926021965418888
aF3.253398923650669e-05
aF0.013270843448714058
aF8.848278309775694e-05
ag352
ag352
aF0.10042566899289522
aF0.0003339786604465085
aF0.10533073946230154
aF0.005656761824144469
aF0.10580818398595841
aF0.000851270944635791
aF0.08162228670227192
aF0.0017605645102967572
aF0.012518871500019272
aF3.302463556502372e-05
aF0.024953502112935146
aF0.001285111555566083
aF0.01926021965418888
aF3.253398923650669e-05
aF0.013270843448714058
aF8.848278309775694e-05
ag352
ag352
aF0.10049249018995736
aF0.00033463416479886167
aF0.10539465968485397
aF0.005665975547954861
aF0.10593432161063035
aF0.0008586057184665944
aF0.08160888265510659
aF0.0017600199642054397
aF0.012531426616703324
aF3.3316357228067816e-05
aF0.02492988747053208
aF0.0012856860753933195
aF0.019266356178751286
aF3.263993083465803e-05
aF0.013263130913334807
aF8.830164767549274e-05
ag352
ag352
aF0.10049249018995736
aF0.00033463416479886167
aF0.10539465968485397
aF0.005665975547954861
aF0.10593432161063035
aF0.0008586057184665944
aF0.08160888265510659
aF0.0017600199642054397
aF0.012531426616703324
aF3.3316357228067816e-05
aF0.02492988747053208
aF0.0012856860753933195
aF0.019266356178751286
aF3.263993083465803e-05
aF0.013263130913334807
aF8.830164767549274e-05
ag352
ag352
aF0.1004687580208299
aF0.00033420668687434324
aF0.10548339034781594
aF0.005659450867210561
aF0.10552430724234131
aF0.0008514060576669649
aF0.08146461177065915
aF0.0017582712060113953
aF0.012525959023365346
aF3.2918359094734165e-05
aF0.024978872034175204
aF0.0012904526582597445
aF0.019205442351906153
aF3.26338622835599e-05
aF0.013242251729049087
aF8.812138236327907e-05
ag352
ag352
aF0.1004687580208299
aF0.00033420668687434324
aF0.10548339034781594
aF0.005659450867210561
aF0.10552430724234131
aF0.0008514060576669649
aF0.08146461177065915
aF0.0017582712060113953
aF0.012525959023365346
aF3.2918359094734165e-05
aF0.024978872034175204
aF0.0012904526582597445
aF0.019205442351906153
aF3.26338622835599e-05
aF0.013242251729049087
aF8.812138236327907e-05
ag352
ag352
aF0.10039643729304326
aF0.00033433718949831876
aF0.10541996126157975
aF0.005674705426693279
aF0.10580787140074349
aF0.0008559064118043417
aF0.08158613904711233
aF0.0017605597003399912
aF0.012514054913266608
aF3.298730637947413e-05
aF0.024955279455080935
aF0.0012849683858744737
aF0.019253349363556854
aF3.21389356447859e-05
aF0.013266651485368737
aF8.818405163266037e-05
ag352
ag352
aF0.10039643729304326
aF0.00033433718949831876
aF0.10541996126157975
aF0.005674705426693279
aF0.10580787140074349
aF0.0008559064118043417
aF0.08158613904711233
aF0.0017605597003399912
aF0.012514054913266608
aF3.298730637947413e-05
aF0.024955279455080935
aF0.0012849683858744737
aF0.019253349363556854
aF3.21389356447859e-05
aF0.013266651485368737
aF8.818405163266037e-05
ag352
ag352
aF0.1004672888365265
aF0.0003340172424794624
aF0.10551265239492115
aF0.0056745462475473974
aF0.1056797700123633
aF0.0008495478993479104
aF0.08157134100387678
aF0.001759579402539285
aF0.01252254000378931
aF3.267391355894527e-05
aF0.024986363271397628
aF0.001288162809535014
aF0.019215062066331338
aF3.208925195913823e-05
aF0.013269737281491778
aF8.797949120148985e-05
ag352
ag352
aF0.1004672888365265
aF0.0003340172424794624
aF0.10551265239492115
aF0.0056745462475473974
aF0.1056797700123633
aF0.0008495478993479104
aF0.08157134100387678
aF0.001759579402539285
aF0.01252254000378931
aF3.267391355894527e-05
aF0.024986363271397628
aF0.001288162809535014
aF0.019215062066331338
aF3.208925195913823e-05
aF0.013269737281491778
aF8.797949120148985e-05
ag352
ag352
aF0.10047551181254005
aF0.0003341650196325585
aF0.10545862427932885
aF0.005655285522112132
aF0.10572922046098432
aF0.0008502048286711128
aF0.08166039254980216
aF0.0017626842286124589
aF0.012521523682290722
aF3.298974865201108e-05
aF0.024979030903831516
aF0.0012884013563250658
aF0.019247384741500072
aF3.234028971278286e-05
aF0.013277809141239003
aF8.829092909841123e-05
ag352
ag352
aF0.10047551181254005
aF0.0003341650196325585
aF0.10545862427932885
aF0.005655285522112132
aF0.10572922046098432
aF0.0008502048286711128
aF0.08166039254980216
aF0.0017626842286124589
aF0.012521523682290722
aF3.298974865201108e-05
aF0.024979030903831516
aF0.0012884013563250658
aF0.019247384741500072
aF3.234028971278286e-05
aF0.013277809141239003
aF8.829092909841123e-05
ag352
ag352
aF0.10046237771215037
aF0.00033464372994255467
aF0.10537234769160722
aF0.005662051714560758
aF0.10567537290579654
aF0.0008535599031094781
aF0.08162864044013994
aF0.0017616901202024123
aF0.0125203066183176
aF3.3316043941679936e-05
aF0.024952246841279814
aF0.0012861756175825197
aF0.019249437500123045
aF3.239124607696388e-05
aF0.01327293026303354
aF8.852025461090991e-05
ag352
ag352
aF0.10046237771215037
aF0.00033464372994255467
aF0.10537234769160722
aF0.005662051714560758
aF0.10567537290579654
aF0.0008535599031094781
aF0.08162864044013994
aF0.0017616901202024123
aF0.0125203066183176
aF3.3316043941679936e-05
aF0.024952246841279814
aF0.0012861756175825197
aF0.019249437500123045
aF3.239124607696388e-05
aF0.01327293026303354
aF8.852025461090991e-05
ag352
ag352
aF0.1004311944448382
aF0.00033438415519835006
aF0.1054744759375511
aF0.005672143575581809
aF0.10574188471984639
aF0.0008541252299067287
aF0.0815866008818802
aF0.001760674345822277
aF0.012517883360832802
aF3.31695302474772e-05
aF0.024963363409553022
aF0.0012859060054353927
aF0.019253293371249123
aF3.2124180312142725e-05
aF0.013264574818997643
aF8.819440270020283e-05
ag352
ag352
aF0.1004311944448382
aF0.00033438415519835006
aF0.1054744759375511
aF0.005672143575581809
aF0.10574188471984639
aF0.0008541252299067287
aF0.0815866008818802
aF0.001760674345822277
aF0.012517883360832802
aF3.31695302474772e-05
aF0.024963363409553022
aF0.0012859060054353927
aF0.019253293371249123
aF3.2124180312142725e-05
aF0.013264574818997643
aF8.819440270020283e-05
ag352
ag352
aF0.10043308106622055
aF0.0003343602676855701
aF0.10554260532824554
aF0.005688621409664293
aF0.10579064934138663
aF0.000854516544190904
aF0.08163048148844354
aF0.0017615161614656259
aF0.012523925313288067
aF3.283205895898371e-05
aF0.02496240448745045
aF0.0012881744909640238
aF0.019261881605581555
aF3.231180897390389e-05
aF0.013281266308421595
aF8.869043536624554e-05
ag352
ag352
aF0.10043308106622055
aF0.0003343602676855701
aF0.10554260532824554
aF0.005688621409664293
aF0.10579064934138663
aF0.000854516544190904
aF0.08163048148844354
aF0.0017615161614656259
aF0.012523925313288067
aF3.283205895898371e-05
aF0.02496240448745045
aF0.0012881744909640238
aF0.019261881605581555
aF3.231180897390389e-05
aF0.013281266308421595
aF8.869043536624554e-05
ag352
ag352
aF0.10040291149020009
aF0.0003341849835512874
aF0.10530900433870022
aF0.0056601851475597004
aF0.10582800167259294
aF0.0008493604898473062
aF0.08151149524161058
aF0.0017605174968282865
aF0.012518902153759373
aF3.307633880771184e-05
aF0.02493516222707066
aF0.00128476819863158
aF0.019283718928600885
aF3.247764551189877e-05
aF0.013257039216064928
aF8.805746737259069e-05
ag352
ag352
aF0.10040291149020009
aF0.0003341849835512874
aF0.10530900433870022
aF0.0056601851475597004
aF0.10582800167259294
aF0.0008493604898473062
aF0.08151149524161058
aF0.0017605174968282865
aF0.012518902153759373
aF3.307633880771184e-05
aF0.02493516222707066
aF0.00128476819863158
aF0.019283718928600885
aF3.247764551189877e-05
aF0.013257039216064928
aF8.805746737259069e-05
ag352
ag352
aF0.10043112106904321
aF0.0003345397155053826
aF0.10541915463217846
aF0.005663138828891577
aF0.1057716556876593
aF0.0008544832703175146
aF0.08160794079237688
aF0.0017615530823331636
aF0.012523102717933433
aF3.310813300282766e-05
aF0.024952038856060475
aF0.001286130939154059
aF0.01925219221377105
aF3.237138263879506e-05
aF0.013274308097227669
aF8.837969584284475e-05
ag352
ag352
aF0.10043112106904321
aF0.0003345397155053826
aF0.10541915463217846
aF0.005663138828891577
aF0.1057716556876593
aF0.0008544832703175146
aF0.08160794079237688
aF0.0017615530823331636
aF0.012523102717933433
aF3.310813300282766e-05
aF0.024952038856060475
aF0.001286130939154059
aF0.01925219221377105
aF3.237138263879506e-05
aF0.013274308097227669
aF8.837969584284475e-05
ag352
ag352
aF0.10044307751600905
aF0.0003338810593463344
aF0.10551305967071062
aF0.005674695317974361
aF0.10577368040669108
aF0.0008529745557036927
aF0.081635612750851
aF0.0017614278572592819
aF0.01252691563369577
aF3.2692407506409006e-05
aF0.024969078769615776
aF0.0012880402858876042
aF0.019266503206637933
aF3.246102852983528e-05
aF0.013281878699107918
aF8.818838908941244e-05
ag352
ag352
aF0.10044307751600905
aF0.0003338810593463344
aF0.10551305967071062
aF0.005674695317974361
aF0.10577368040669108
aF0.0008529745557036927
aF0.081635612750851
aF0.0017614278572592819
aF0.01252691563369577
aF3.2692407506409006e-05
aF0.024969078769615776
aF0.0012880402858876042
aF0.019266503206637933
aF3.246102852983528e-05
aF0.013281878699107918
aF8.818838908941244e-05
ag352
ag352
aF0.1004904813480056
aF0.00033491180542592893
aF0.10553446551710645
aF0.005669882618292569
aF0.10574379719973684
aF0.0008532423031616008
aF0.08157776885378637
aF0.0017600798723087286
aF0.012532250665453526
aF3.321805714395803e-05
aF0.024989868968722108
aF0.0012899517483964313
aF0.019254312433637292
aF3.268142077642064e-05
aF0.013267113391599307
aF8.810818936063908e-05
ag352
ag352
aF0.1004904813480056
aF0.00033491180542592893
aF0.10553446551710645
aF0.005669882618292569
aF0.10574379719973684
aF0.0008532423031616008
aF0.08157776885378637
aF0.0017600798723087286
aF0.012532250665453526
aF3.321805714395803e-05
aF0.024989868968722108
aF0.0012899517483964313
aF0.019254312433637292
aF3.268142077642064e-05
aF0.013267113391599307
aF8.810818936063908e-05
ag352
ag352
aF0.10044008575554746
aF0.00033397254438809594
aF0.10547588077691701
aF0.005679888719675655
aF0.10579402546565844
aF0.0008504483217615489
aF0.08154553867580447
aF0.0017590242013049884
aF0.012530852534125711
aF3.267227573189296e-05
aF0.024946956310017646
aF0.001287387193779207
aF0.019262655581206774
aF3.255584499366471e-05
aF0.013264604044168238
aF8.84133485557934e-05
ag352
ag352
aF0.10044008575554746
aF0.00033397254438809594
aF0.10547588077691701
aF0.005679888719675655
aF0.10579402546565844
aF0.0008504483217615489
aF0.08154553867580447
aF0.0017590242013049884
aF0.012530852534125711
aF3.267227573189296e-05
aF0.024946956310017646
aF0.001287387193779207
aF0.019262655581206774
aF3.255584499366471e-05
aF0.013264604044168238
aF8.84133485557934e-05
ag352
ag352
aF0.10045781136471109
aF0.000333947678632165
aF0.10549435809991939
aF0.005656167789865273
aF0.105811247448265
aF0.0008530622818303691
aF0.0816131284118556
aF0.0017611882397052586
aF0.012524216288017271
aF3.280638263739438e-05
aF0.024973102620240203
aF0.001290710885135123
aF0.01925692549322127
aF3.2569844115170495e-05
aF0.013268557029252897
aF8.835265521974513e-05
ag352
ag352
aF0.10045781136471109
aF0.000333947678632165
aF0.10549435809991939
aF0.005656167789865273
aF0.105811247448265
aF0.0008530622818303691
aF0.0816131284118556
aF0.0017611882397052586
aF0.012524216288017271
aF3.280638263739438e-05
aF0.024973102620240203
aF0.001290710885135123
aF0.01925692549322127
aF3.2569844115170495e-05
aF0.013268557029252897
aF8.835265521974513e-05
ag352
ag352
aF0.10048160809647042
aF0.00033404149626868515
aF0.10547142417221403
aF0.005675260062638339
aF0.10582674553397511
aF0.00085122673269228
aF0.0816678572653821
aF0.001762329606682951
aF0.012530976189630373
aF3.2733735105381534e-05
aF0.024967024466342896
aF0.0012891929678497166
aF0.01925858637915313
aF3.2665291426145924e-05
aF0.013288679218329328
aF8.830365952236806e-05
ag352
ag352
aF0.10048160809647042
aF0.00033404149626868515
aF0.10547142417221403
aF0.005675260062638339
aF0.10582674553397511
aF0.00085122673269228
aF0.0816678572653821
aF0.001762329606682951
aF0.012530976189630373
aF3.2733735105381534e-05
aF0.024967024466342896
aF0.0012891929678497166
aF0.01925858637915313
aF3.2665291426145924e-05
aF0.013288679218329328
aF8.830365952236806e-05
ag352
ag352
aF0.10044775258983396
aF0.00033431851271253606
aF0.10543402999917373
aF0.0056733934518343465
aF0.10586776261481368
aF0.0008486822550741283
aF0.08168507483598635
aF0.0017625274010548925
aF0.012524925596068649
aF3.28201683762349e-05
aF0.024968084449233235
aF0.0012880996847091106
aF0.019261801877682505
aF3.251852855244367e-05
aF0.013287337157046535
aF8.843077248137617e-05
ag352
ag352
aF0.10044775258983396
aF0.00033431851271253606
aF0.10543402999917373
aF0.0056733934518343465
aF0.10586776261481368
aF0.0008486822550741283
aF0.08168507483598635
aF0.0017625274010548925
aF0.012524925596068649
aF3.28201683762349e-05
aF0.024968084449233235
aF0.0012880996847091106
aF0.019261801877682505
aF3.251852855244367e-05
aF0.013287337157046535
aF8.843077248137617e-05
ag352
ag352
aF0.10047625215756084
aF0.00033416873916621996
aF0.10552752283323745
aF0.005679365089328912
aF0.10571998720181336
aF0.000849015004612697
aF0.08164092749168711
aF0.0017612895217931136
aF0.012531562750807242
aF3.304098688614538e-05
aF0.02497749831993357
aF0.0012855011525311363
aF0.01923586747625826
aF3.232829128372687e-05
aF0.013277532675137415
aF8.81971137492594e-05
ag352
ag352
aF0.10047625215756084
aF0.00033416873916621996
aF0.10552752283323745
aF0.005679365089328912
aF0.10571998720181336
aF0.000849015004612697
aF0.08164092749168711
aF0.0017612895217931136
aF0.012531562750807242
aF3.304098688614538e-05
aF0.02497749831993357
aF0.0012855011525311363
aF0.01923586747625826
aF3.232829128372687e-05
aF0.013277532675137415
aF8.81971137492594e-05
ag352
ag352
aF0.10045266634295083
aF0.00033421808754641804
aF0.10552106998186618
aF0.005677412668440305
aF0.10573063920052357
aF0.0008494941451456412
aF0.08159183478617656
aF0.0017603780161379798
aF0.012526042077060498
aF3.2972341862018724e-05
aF0.024975288526928346
aF0.0012882033841369888
aF0.019250092819957446
aF3.2564216131828494e-05
aF0.013277075013542368
aF8.85350818893363e-05
ag352
ag352
aF0.10045266634295083
aF0.00033421808754641804
aF0.10552106998186618
aF0.005677412668440305
aF0.10573063920052357
aF0.0008494941451456412
aF0.08159183478617656
aF0.0017603780161379798
aF0.012526042077060498
aF3.2972341862018724e-05
aF0.024975288526928346
aF0.0012882033841369888
aF0.019250092819957446
aF3.2564216131828494e-05
aF0.013277075013542368
aF8.85350818893363e-05
ag352
ag352
aF0.10047595256151574
aF0.0003345159873401336
aF0.10549739589280831
aF0.00567990392929728
aF0.10581235974830683
aF0.0008519438109514299
aF0.0816475797194791
aF0.0017618891944242866
aF0.012530590011744829
aF3.3038727139958994e-05
aF0.024972143171668834
aF0.0012885011828885793
aF0.019254242282630295
aF3.2391793106249155e-05
aF0.013282802871378016
aF8.839253831342918e-05
ag352
ag352
aF0.10047595256151574
aF0.0003345159873401336
aF0.10549739589280831
aF0.00567990392929728
aF0.10581235974830683
aF0.0008519438109514299
aF0.0816475797194791
aF0.0017618891944242866
aF0.012530590011744829
aF3.3038727139958994e-05
aF0.024972143171668834
aF0.0012885011828885793
aF0.019254242282630295
aF3.2391793106249155e-05
aF0.013282802871378016
aF8.839253831342918e-05
ag352
ag352
aF0.10044691764432245
aF0.0003342744233187681
aF0.10553633378771955
aF0.005676376067991937
aF0.1057722375505734
aF0.0008503106055841885
aF0.08165322767239368
aF0.0017616057876090622
aF0.012526945466220608
aF3.2856063334180984e-05
aF0.02497070033802394
aF0.0012896078956737647
aF0.01925981788642383
aF3.254620250466966e-05
aF0.013286550131972915
aF8.828541205213118e-05
ag352
ag352
aF0.10044691764432245
aF0.0003342744233187681
aF0.10553633378771955
aF0.005676376067991937
aF0.1057722375505734
aF0.0008503106055841885
aF0.08165322767239368
aF0.0017616057876090622
aF0.012526945466220608
aF3.2856063334180984e-05
aF0.02497070033802394
aF0.0012896078956737647
aF0.01925981788642383
aF3.254620250466966e-05
aF0.013286550131972915
aF8.828541205213118e-05
ag352
ag352
aF0.10045546539631053
aF0.0003342211078062344
aF0.10550226365599429
aF0.005678006667113685
aF0.10578063972989672
aF0.0008503959728355014
aF0.08163725771059581
aF0.0017616874997048778
aF0.012522612166248653
aF3.316653663092443e-05
aF0.024975004117160006
aF0.0012896263159615738
aF0.019257053446437616
aF3.273093157977238e-05
aF0.013282262002273943
aF8.862743941025649e-05
ag352
ag352
aF0.10045546539631053
aF0.0003342211078062344
aF0.10550226365599429
aF0.005678006667113685
aF0.10578063972989672
aF0.0008503959728355014
aF0.08163725771059581
aF0.0017616874997048778
aF0.012522612166248653
aF3.316653663092443e-05
aF0.024975004117160006
aF0.0012896263159615738
aF0.019257053446437616
aF3.273093157977238e-05
aF0.013282262002273943
aF8.862743941025649e-05
ag352
ag352
aF0.10051075060114995
aF0.00033413284496461803
aF0.10557635203541757
aF0.005679063609075107
aF0.1057573241827811
aF0.0008542059752352996
aF0.08159338255424367
aF0.0017617536682611639
aF0.012532371447386304
aF3.284180670451434e-05
aF0.024975738749898047
aF0.0012895306399000892
aF0.019254261289682273
aF3.247918185907791e-05
aF0.013268693027936271
aF8.834191565162099e-05
ag352
ag352
aF0.10051075060114995
aF0.00033413284496461803
aF0.10557635203541757
aF0.005679063609075107
aF0.1057573241827811
aF0.0008542059752352996
aF0.08159338255424367
aF0.0017617536682611639
aF0.012532371447386304
aF3.284180670451434e-05
aF0.024975738749898047
aF0.0012895306399000892
aF0.019254261289682273
aF3.247918185907791e-05
aF0.013268693027936271
aF8.834191565162099e-05
ag352
ag352
aF0.1004612915696138
aF0.00033414474488106826
aF0.10547015988128282
aF0.005671655117500347
aF0.10573008722169806
aF0.0008498576492304037
aF0.08155065340748194
aF0.001760546102699007
aF0.01252455115946497
aF3.288314310869728e-05
aF0.024965142712711087
aF0.0012875416209653515
aF0.019233259892996846
aF3.211490747457468e-05
aF0.013263323656589965
aF8.809823092624266e-05
ag352
ag352
aF0.1004612915696138
aF0.00033414474488106826
aF0.10547015988128282
aF0.005671655117500347
aF0.10573008722169806
aF0.0008498576492304037
aF0.08155065340748194
aF0.001760546102699007
aF0.01252455115946497
aF3.288314310869728e-05
aF0.024965142712711087
aF0.0012875416209653515
aF0.019233259892996846
aF3.211490747457468e-05
aF0.013263323656589965
aF8.809823092624266e-05
ag352
ag352
aF0.1004819926933008
aF0.00033450298671122036
aF0.1055004968091524
aF0.0056837179046845985
aF0.10587514157550544
aF0.0008531380723459932
aF0.0816726900110613
aF0.0017629165698721096
aF0.012525880536376195
aF3.301185740146784e-05
aF0.024958721624273435
aF0.0012881933221949014
aF0.019272046066830983
aF3.2525740582266476e-05
aF0.013285629548638546
aF8.832996794284396e-05
ag352
ag352
aF0.1004819926933008
aF0.00033450298671122036
aF0.1055004968091524
aF0.0056837179046845985
aF0.10587514157550544
aF0.0008531380723459932
aF0.0816726900110613
aF0.0017629165698721096
aF0.012525880536376195
aF3.301185740146784e-05
aF0.024958721624273435
aF0.0012881933221949014
aF0.019272046066830983
aF3.2525740582266476e-05
aF0.013285629548638546
aF8.832996794284396e-05
ag352
ag352
aF0.10049682279404618
aF0.00033439187505820294
aF0.10558409907218894
aF0.005685002831275906
aF0.10570055029998644
aF0.0008511737547380292
aF0.0815788734684428
aF0.0017594072255315923
aF0.012532863747707916
aF3.294788774008144e-05
aF0.024975217298429466
aF0.0012882585725449529
aF0.019237936773894643
aF3.237527944429465e-05
aF0.013269338802518934
aF8.843636213682367e-05
ag352
ag352
aF0.10049682279404618
aF0.00033439187505820294
aF0.10558409907218894
aF0.005685002831275906
aF0.10570055029998644
aF0.0008511737547380292
aF0.0815788734684428
aF0.0017594072255315923
aF0.012532863747707916
aF3.294788774008144e-05
aF0.024975217298429466
aF0.0012882585725449529
aF0.019237936773894643
aF3.237527944429465e-05
aF0.013269338802518934
aF8.843636213682367e-05
ag352
ag352
aF0.10047720111103713
aF0.00033416457240639493
aF0.10550111027598848
aF0.005671443967728656
aF0.10584190376472499
aF0.0008506890050040004
aF0.0817177986847415
aF0.0017627447243038024
aF0.012526920803733169
aF3.2907348385298734e-05
aF0.024988448487997663
aF0.0012875543644553832
aF0.019257017754471376
aF3.2282446219762e-05
aF0.013292011175118608
aF8.849630454483336e-05
ag352
ag352
aF0.10047720111103713
aF0.00033416457240639493
aF0.10550111027598848
aF0.005671443967728656
aF0.10584190376472499
aF0.0008506890050040004
aF0.0817177986847415
aF0.0017627447243038024
aF0.012526920803733169
aF3.2907348385298734e-05
aF0.024988448487997663
aF0.0012875543644553832
aF0.019257017754471376
aF3.2282446219762e-05
aF0.013292011175118608
aF8.849630454483336e-05
ag352
ag352
aF0.1004729862359397
aF0.000334284848318535
aF0.10546905399685352
aF0.0056748035127291326
aF0.10579161723187852
aF0.0008520189981433123
aF0.08162424218285576
aF0.001761703765305744
aF0.01253097104903491
aF3.2868957435137206e-05
aF0.024955197882026776
aF0.001288570039689185
aF0.01926601656699043
aF3.24866991209928e-05
aF0.01328130748304754
aF8.83780188866706e-05
ag352
ag352
aF0.1004729862359397
aF0.000334284848318535
aF0.10546905399685352
aF0.0056748035127291326
aF0.10579161723187852
aF0.0008520189981433123
aF0.08162424218285576
aF0.001761703765305744
aF0.01253097104903491
aF3.2868957435137206e-05
aF0.024955197882026776
aF0.001288570039689185
aF0.01926601656699043
aF3.24866991209928e-05
aF0.01328130748304754
aF8.83780188866706e-05
ag352
ag352
aF0.10046997605191146
aF0.0003342812244180009
aF0.10555356070225468
aF0.005677664497685618
aF0.10580161057866047
aF0.0008531557803050405
aF0.0815941467645802
aF0.001760706431788483
aF0.012528772966473796
aF3.288166369830273e-05
aF0.024983929928094024
aF0.001289067131552709
aF0.01925689386461943
aF3.2677671342327174e-05
aF0.013273692560097547
aF8.847329735105395e-05
ag352
ag352
aF0.10046997605191146
aF0.0003342812244180009
aF0.10555356070225468
aF0.005677664497685618
aF0.10580161057866047
aF0.0008531557803050405
aF0.0815941467645802
aF0.001760706431788483
aF0.012528772966473796
aF3.288166369830273e-05
aF0.024983929928094024
aF0.001289067131552709
aF0.01925689386461943
aF3.2677671342327174e-05
aF0.013273692560097547
aF8.847329735105395e-05
ag352
ag352
aF0.10046707170132572
aF0.00033423583248980317
aF0.1054465550327128
aF0.005670996114517094
aF0.10581952957334924
aF0.0008530720735501705
aF0.08159781896484732
aF0.0017612044617308553
aF0.01252787924856278
aF3.2811910649188125e-05
aF0.02495613480773795
aF0.0012865771801130554
aF0.019257281956249178
aF3.2504380621519836e-05
aF0.013267830718975075
aF8.824372967907805e-05
ag352
ag352
aF0.10046707170132572
aF0.00033423583248980317
aF0.1054465550327128
aF0.005670996114517094
aF0.10581952957334924
aF0.0008530720735501705
aF0.08159781896484732
aF0.0017612044617308553
aF0.01252787924856278
aF3.2811910649188125e-05
aF0.02495613480773795
aF0.0012865771801130554
aF0.019257281956249178
aF3.2504380621519836e-05
aF0.013267830718975075
aF8.824372967907805e-05
ag352
ag352
aF0.10045849603876719
aF0.00033418410476102755
aF0.10552520405289738
aF0.005676319653932826
aF0.1056938146590106
aF0.000851469483389727
aF0.08161983036209912
aF0.0017603012848411844
aF0.012526040061544008
aF3.292608779660669e-05
aF0.02497593078957104
aF0.0012882091117865698
aF0.01923563684773377
aF3.2542676005087826e-05
aF0.01327773595133632
aF8.832933281010722e-05
ag352
ag352
aF0.10045849603876719
aF0.00033418410476102755
aF0.10552520405289738
aF0.005676319653932826
aF0.1056938146590106
aF0.000851469483389727
aF0.08161983036209912
aF0.0017603012848411844
aF0.012526040061544008
aF3.292608779660669e-05
aF0.02497593078957104
aF0.0012882091117865698
aF0.01923563684773377
aF3.2542676005087826e-05
aF0.01327773595133632
aF8.832933281010722e-05
ag352
ag352
aF0.10046387036820167
aF0.00033442529181873596
aF0.10542457096976457
aF0.005669710648124636
aF0.10578881970836558
aF0.0008507757025635519
aF0.08163662824859433
aF0.0017611507519662735
aF0.012527319864311695
aF3.305217834827984e-05
aF0.02495408689534107
aF0.0012889544366306328
aF0.019260502740416664
aF3.2600753724816284e-05
aF0.013277509130022949
aF8.827864718623704e-05
ag352
ag352
aF0.10046387036820167
aF0.00033442529181873596
aF0.10542457096976457
aF0.005669710648124636
aF0.10578881970836558
aF0.0008507757025635519
aF0.08163662824859433
aF0.0017611507519662735
aF0.012527319864311695
aF3.305217834827984e-05
aF0.02495408689534107
aF0.0012889544366306328
aF0.019260502740416664
aF3.2600753724816284e-05
aF0.013277509130022949
aF8.827864718623704e-05
ag352
ag352
aF0.1004525740971072
aF0.00033419000650591874
aF0.10543718724666372
aF0.005670224171084585
aF0.10577579616294282
aF0.000852463175503091
aF0.08156529284730714
aF0.0017599957201460195
aF0.012528086898259133
aF3.2738477912781775e-05
aF0.02495109053863974
aF0.0012883939430019546
aF0.019260112326199313
aF3.2498731805166087e-05
aF0.013264316794089093
aF8.823839669632209e-05
ag352
ag352
aF0.1004525740971072
aF0.00033419000650591874
aF0.10543718724666372
aF0.005670224171084585
aF0.10577579616294282
aF0.000852463175503091
aF0.08156529284730714
aF0.0017599957201460195
aF0.012528086898259133
aF3.2738477912781775e-05
aF0.02495109053863974
aF0.0012883939430019546
aF0.019260112326199313
aF3.2498731805166087e-05
aF0.013264316794089093
aF8.823839669632209e-05
ag352
ag352
aF0.10046859596982408
aF0.00033429110292358406
aF0.10550046659446777
aF0.00567185135649924
aF0.10579930105754026
aF0.0008515317845864651
aF0.08162082188569152
aF0.001762210370583269
aF0.012530338319185435
aF3.2861806147708154e-05
aF0.024980845025800214
aF0.0012884248346126275
aF0.019267422127626343
aF3.2555132164563326e-05
aF0.013276995906828482
aF8.844447638138803e-05
ag352
ag352
aF0.10046859596982408
aF0.00033429110292358406
aF0.10550046659446777
aF0.00567185135649924
aF0.10579930105754026
aF0.0008515317845864651
aF0.08162082188569152
aF0.001762210370583269
aF0.012530338319185435
aF3.2861806147708154e-05
aF0.024980845025800214
aF0.0012884248346126275
aF0.019267422127626343
aF3.2555132164563326e-05
aF0.013276995906828482
aF8.844447638138803e-05
ag352
ag352
aF0.10045523551000363
aF0.00033406832553974195
aF0.10540522035397933
aF0.005674467979423018
aF0.10577872856202715
aF0.0008512115242013081
aF0.08161324226082736
aF0.0017613502889583174
aF0.012524090615644573
aF3.291205971916099e-05
aF0.02493977941325875
aF0.0012855757835869858
aF0.019254412768871534
aF3.2451266548211784e-05
aF0.01327250851008795
aF8.856897713883886e-05
ag352
ag352
aF0.10045523551000363
aF0.00033406832553974195
aF0.10540522035397933
aF0.005674467979423018
aF0.10577872856202715
aF0.0008512115242013081
aF0.08161324226082736
aF0.0017613502889583174
aF0.012524090615644573
aF3.291205971916099e-05
aF0.02493977941325875
aF0.0012855757835869858
aF0.019254412768871534
aF3.2451266548211784e-05
aF0.01327250851008795
aF8.856897713883886e-05
ag352
ag352
aF0.10043602941455025
aF0.0003343122950434146
aF0.10545333875974351
aF0.0056691509030678535
aF0.1057575149723412
aF0.0008531843083841342
aF0.08158793176467717
aF0.0017609891246292537
aF0.012524071940872265
aF3.296494508198592e-05
aF0.024969877240536124
aF0.001287916671042353
aF0.019249687442198887
aF3.2463427305762596e-05
aF0.013268906236860042
aF8.819543988144207e-05
ag352
ag352
aF0.10043602941455025
aF0.0003343122950434146
aF0.10545333875974351
aF0.0056691509030678535
aF0.1057575149723412
aF0.0008531843083841342
aF0.08158793176467717
aF0.0017609891246292537
aF0.012524071940872265
aF3.296494508198592e-05
aF0.024969877240536124
aF0.001287916671042353
aF0.019249687442198887
aF3.2463427305762596e-05
aF0.013268906236860042
aF8.819543988144207e-05
ag352
ag352
aF0.10044775307951408
aF0.0003342499657258172
aF0.10547110122378771
aF0.005667813242737528
aF0.10577705037798638
aF0.0008517946948928027
aF0.08159498540548028
aF0.0017614342170589386
aF0.012525313399230374
aF3.304108980837689e-05
aF0.02497265708140517
aF0.0012881060399588258
aF0.0192479228675228
aF3.251757825977673e-05
aF0.013273000193591341
aF8.840453133088308e-05
ag352
ag352
aF0.10044775307951408
aF0.0003342499657258172
aF0.10547110122378771
aF0.005667813242737528
aF0.10577705037798638
aF0.0008517946948928027
aF0.08159498540548028
aF0.0017614342170589386
aF0.012525313399230374
aF3.304108980837689e-05
aF0.02497265708140517
aF0.0012881060399588258
aF0.0192479228675228
aF3.251757825977673e-05
aF0.013273000193591341
aF8.840453133088308e-05
ag352
ag352
aF0.10050864483687559
aF0.0003343329144083191
aF0.10553813785115657
aF0.005677995939046532
aF0.10582437448491692
aF0.0008524580824797954
aF0.08165852748933865
aF0.0017618988044140478
aF0.012532155128292961
aF3.295686785170604e-05
aF0.02498034117732785
aF0.001289065939698895
aF0.019252293620144943
aF3.243009694843453e-05
aF0.013282464266208558
aF8.83686726160216e-05
ag352
ag352
aF0.10050864483687559
aF0.0003343329144083191
aF0.10553813785115657
aF0.005677995939046532
aF0.10582437448491692
aF0.0008524580824797954
aF0.08165852748933865
aF0.0017618988044140478
aF0.012532155128292961
aF3.295686785170604e-05
aF0.02498034117732785
aF0.001289065939698895
aF0.019252293620144943
aF3.243009694843453e-05
aF0.013282464266208558
aF8.83686726160216e-05
ag352
ag352
aF0.10045439546971534
aF0.0003343101624304016
aF0.10550538838343156
aF0.005668171825751451
aF0.10575724740137606
aF0.0008512814359416303
aF0.08159365334849979
aF0.0017606736032413559
aF0.01252642681973491
aF3.299722068436443e-05
aF0.024985232398984588
aF0.0012903660040223747
aF0.019253365030305045
aF3.2578830941264904e-05
aF0.013273823793596531
aF8.832083784204698e-05
ag352
ag352
aF0.10045439546971534
aF0.0003343101624304016
aF0.10550538838343156
aF0.005668171825751451
aF0.10575724740137606
aF0.0008512814359416303
aF0.08159365334849979
aF0.0017606736032413559
aF0.01252642681973491
aF3.299722068436443e-05
aF0.024985232398984588
aF0.0012903660040223747
aF0.019253365030305045
aF3.2578830941264904e-05
aF0.013273823793596531
aF8.832083784204698e-05
ag352
ag352
aF0.10043847545638597
aF0.00033398542436143143
aF0.10542526802573499
aF0.0056695802743767
aF0.10573965231308653
aF0.0008531435025127578
aF0.08156511677073638
aF0.0017601702117882832
aF0.012525697339172265
aF3.2819257043483475e-05
aF0.024945393716185177
aF0.0012878172096030859
aF0.019246683735426273
aF3.25846959869322e-05
aF0.013265079402792377
aF8.82905065048564e-05
ag352
ag352
aF0.10043847545638597
aF0.00033398542436143143
aF0.10542526802573499
aF0.0056695802743767
aF0.10573965231308653
aF0.0008531435025127578
aF0.08156511677073638
aF0.0017601702117882832
aF0.012525697339172265
aF3.2819257043483475e-05
aF0.024945393716185177
aF0.0012878172096030859
aF0.019246683735426273
aF3.25846959869322e-05
aF0.013265079402792377
aF8.82905065048564e-05
ag352
ag352
aF0.10046468676939836
aF0.00033422140979142524
aF0.10547897532299844
aF0.00566954950475325
aF0.1057332954004813
aF0.0008517599884984716
aF0.08160389271611206
aF0.0017608542370179565
aF0.012527770320069605
aF3.301516398066898e-05
aF0.02497084977573229
aF0.0012887070716216345
aF0.01924759624220987
aF3.250641146596205e-05
aF0.01327269097688374
aF8.831650482699489e-05
ag352
ag352
aF0.10046468676939836
aF0.00033422140979142524
aF0.10547897532299844
aF0.00566954950475325
aF0.1057332954004813
aF0.0008517599884984716
aF0.08160389271611206
aF0.0017608542370179565
aF0.012527770320069605
aF3.301516398066898e-05
aF0.02497084977573229
aF0.0012887070716216345
aF0.01924759624220987
aF3.250641146596205e-05
aF0.01327269097688374
aF8.831650482699489e-05
ag352
ag352
aF0.10043905778622358
aF0.00033423297563804156
aF0.10547179708638196
aF0.005675078740579809
aF0.10575674266437934
aF0.0008529908831822872
aF0.08158329858625037
aF0.0017603519385897878
aF0.012524974162863325
aF3.303879882649118e-05
aF0.0249585386692815
aF0.00128859385813407
aF0.019248449444093894
aF3.239825978567166e-05
aF0.013269900684409149
aF8.822320471131474e-05
ag352
ag352
aF0.10043905778622358
aF0.00033423297563804156
aF0.10547179708638196
aF0.005675078740579809
aF0.10575674266437934
aF0.0008529908831822872
aF0.08158329858625037
aF0.0017603519385897878
aF0.012524974162863325
aF3.303879882649118e-05
aF0.0249585386692815
aF0.00128859385813407
aF0.019248449444093894
aF3.239825978567166e-05
aF0.013269900684409149
aF8.822320471131474e-05
ag352
ag352
aF0.1004682201434905
aF0.00033417221392218236
aF0.10550710023567689
aF0.005671853760475675
aF0.10576871328622854
aF0.0008535782339635163
aF0.08164124964760683
aF0.001762093079421671
aF0.012526021462383324
aF3.296852181424896e-05
aF0.02497827580478508
aF0.0012876343633927794
aF0.01925453381332463
aF3.254935223333316e-05
aF0.013283067742281078
aF8.843175588420285e-05
ag352
ag352
aF0.1004682201434905
aF0.00033417221392218236
aF0.10550710023567689
aF0.005671853760475675
aF0.10576871328622854
aF0.0008535782339635163
aF0.08164124964760683
aF0.001762093079421671
aF0.012526021462383324
aF3.296852181424896e-05
aF0.02497827580478508
aF0.0012876343633927794
aF0.01925453381332463
aF3.254935223333316e-05
aF0.013283067742281078
aF8.843175588420285e-05
ag352
ag352
aF0.10047195775320865
aF0.0003341923243225825
aF0.10554209688456924
aF0.00566952930270601
aF0.10569761455641971
aF0.0008512594929434245
aF0.08157925352174356
aF0.0017602466832025894
aF0.012527279429053689
aF3.308607462043882e-05
aF0.024985143661072202
aF0.0012885236384720961
aF0.019242635636216133
aF3.2593811376847983e-05
aF0.01326750302180696
aF8.825576162771225e-05
ag352
ag352
aF0.10047195775320865
aF0.0003341923243225825
aF0.10554209688456924
aF0.00566952930270601
aF0.10569761455641971
aF0.0008512594929434245
aF0.08157925352174356
aF0.0017602466832025894
aF0.012527279429053689
aF3.308607462043882e-05
aF0.024985143661072202
aF0.0012885236384720961
aF0.019242635636216133
aF3.2593811376847983e-05
aF0.01326750302180696
aF8.825576162771225e-05
ag352
ag352
aF0.10047052597389126
aF0.0003341806577309995
aF0.10549620183279018
aF0.005677445054177794
aF0.10579228257552505
aF0.0008529771666675125
aF0.08163723727803136
aF0.0017620870109429012
aF0.012529669367389496
aF3.291198083351278e-05
aF0.024969709059726248
aF0.0012882935222744748
aF0.019261400063615007
aF3.2493457449098846e-05
aF0.013280580005204283
aF8.832829861252442e-05
ag352
ag352
aF0.10047052597389126
aF0.0003341806577309995
aF0.10549620183279018
aF0.005677445054177794
aF0.10579228257552505
aF0.0008529771666675125
aF0.08163723727803136
aF0.0017620870109429012
aF0.012529669367389496
aF3.291198083351278e-05
aF0.024969709059726248
aF0.0012882935222744748
aF0.019261400063615007
aF3.2493457449098846e-05
aF0.013280580005204283
aF8.832829861252442e-05
ag352
ag352
aF0.10045133838742024
aF0.0003342745255283727
aF0.1054601979535377
aF0.005673668107149595
aF0.10576495722003373
aF0.0008508058679328418
aF0.08158531447991206
aF0.001760738268144349
aF0.01252524102889359
aF3.296070720801049e-05
aF0.024966326608723555
aF0.001288453337954147
aF0.01925396490519153
aF3.2444658652354076e-05
aF0.013269198659949695
aF8.827707050408415e-05
ag352
ag352
aF0.10045133838742024
aF0.0003342745255283727
aF0.1054601979535377
aF0.005673668107149595
aF0.10576495722003373
aF0.0008508058679328418
aF0.08158531447991206
aF0.001760738268144349
aF0.01252524102889359
aF3.296070720801049e-05
aF0.024966326608723555
aF0.001288453337954147
aF0.01925396490519153
aF3.2444658652354076e-05
aF0.013269198659949695
aF8.827707050408415e-05
ag352
ag352
aF0.1004398830334487
aF0.00033408716305204187
aF0.10547690680393365
aF0.0056732002188838605
aF0.10577200451584812
aF0.0008526062391804115
aF0.0815759430828862
aF0.0017604693693050065
aF0.012523855367818384
aF3.28872253505672e-05
aF0.024963764859561186
aF0.0012869969739735321
aF0.019255118316656713
aF3.23959907891229e-05
aF0.01326880052335253
aF8.833431323616423e-05
ag352
ag352
aF0.1004398830334487
aF0.00033408716305204187
aF0.10547690680393365
aF0.0056732002188838605
aF0.10577200451584812
aF0.0008526062391804115
aF0.0815759430828862
aF0.0017604693693050065
aF0.012523855367818384
aF3.28872253505672e-05
aF0.024963764859561186
aF0.0012869969739735321
aF0.019255118316656713
aF3.23959907891229e-05
aF0.01326880052335253
aF8.833431323616423e-05
ag352
ag352
aF0.10046508632151813
aF0.0003344995236289823
aF0.10551236190774244
aF0.0056671924983643296
aF0.10577794652349568
aF0.0008526337222391261
aF0.08163680352415507
aF0.0017621859629078922
aF0.012528043263643011
aF3.30232144617824e-05
aF0.024979954550085216
aF0.0012890518923305667
aF0.0192636441689171
aF3.276327079247484e-05
aF0.013279677497299528
aF8.840490349370254e-05
ag352
ag352
aF0.10046508632151813
aF0.0003344995236289823
aF0.10551236190774244
aF0.0056671924983643296
aF0.10577794652349568
aF0.0008526337222391261
aF0.08163680352415507
aF0.0017621859629078922
aF0.012528043263643011
aF3.30232144617824e-05
aF0.024979954550085216
aF0.0012890518923305667
aF0.0192636441689171
aF3.276327079247484e-05
aF0.013279677497299528
aF8.840490349370254e-05
ag352
ag352
aF0.10045606475918009
aF0.00033423812576750025
aF0.1054483419290863
aF0.005673075291575411
aF0.10583168522287752
aF0.0008507431111306118
aF0.08160592950913546
aF0.0017611527597769909
aF0.012527602140080323
aF3.286325684835707e-05
aF0.024958383008855667
aF0.0012878591241113778
aF0.019265788689236788
aF3.242526989322946e-05
aF0.013273586956880279
aF8.835127508159048e-05
ag352
ag352
aF0.10045606475918009
aF0.00033423812576750025
aF0.1054483419290863
aF0.005673075291575411
aF0.10583168522287752
aF0.0008507431111306118
aF0.08160592950913546
aF0.0017611527597769909
aF0.012527602140080323
aF3.286325684835707e-05
aF0.024958383008855667
aF0.0012878591241113778
aF0.019265788689236788
aF3.242526989322946e-05
aF0.013273586956880279
aF8.835127508159048e-05
ag352
ag352
aF0.10045658554766518
aF0.0003341111314474937
aF0.10546289589248999
aF0.005671210982617046
aF0.10577893596891695
aF0.0008533868089893671
aF0.0816273365110221
aF0.0017615942241237836
aF0.012526237273604402
aF3.2904287408934456e-05
aF0.024957951146166918
aF0.001287140951171401
aF0.019258080082155727
aF3.24188675555481e-05
aF0.013276359840342622
aF8.821037549279389e-05
ag352
ag352
aF0.10045658554766518
aF0.0003341111314474937
aF0.10546289589248999
aF0.005671210982617046
aF0.10577893596891695
aF0.0008533868089893671
aF0.0816273365110221
aF0.0017615942241237836
aF0.012526237273604402
aF3.2904287408934456e-05
aF0.024957951146166918
aF0.001287140951171401
aF0.019258080082155727
aF3.24188675555481e-05
aF0.013276359840342622
aF8.821037549279389e-05
ag352
ag352
aF0.10046430374941194
aF0.0003343263665491244
aF0.10549506643673275
aF0.005677122466750299
aF0.10577608822000309
aF0.0008523563149733267
aF0.08157595692165934
aF0.0017606102283345905
aF0.012526622999185956
aF3.29472124795368e-05
aF0.02496937296449904
aF0.0012885803849290445
aF0.019256714520063587
aF3.263435670333847e-05
aF0.013269113589031817
aF8.827585399611755e-05
ag352
ag352
aF0.10046430374941194
aF0.0003343263665491244
aF0.10549506643673275
aF0.005677122466750299
aF0.10577608822000309
aF0.0008523563149733267
aF0.08157595692165934
aF0.0017606102283345905
aF0.012526622999185956
aF3.29472124795368e-05
aF0.02496937296449904
aF0.0012885803849290445
aF0.019256714520063587
aF3.263435670333847e-05
aF0.013269113589031817
aF8.827585399611755e-05
ag352
ag352
aF0.10046086852150181
aF0.00033426181487486716
aF0.10550520108891863
aF0.005675607866392369
aF0.10578037176451001
aF0.0008517613537676631
aF0.08161701639320905
aF0.001761685096229194
aF0.012527764628601114
aF3.294242414140902e-05
aF0.02496806560894051
aF0.0012890522739341234
aF0.019254690583135028
aF3.253786095304028e-05
aF0.013276076385240499
aF8.829748884356011e-05
ag352
ag352
aF0.10046086852150181
aF0.00033426181487486716
aF0.10550520108891863
aF0.005675607866392369
aF0.10578037176451001
aF0.0008517613537676631
aF0.08161701639320905
aF0.001761685096229194
aF0.012527764628601114
aF3.294242414140902e-05
aF0.02496806560894051
aF0.0012890522739341234
aF0.019254690583135028
aF3.253786095304028e-05
aF0.013276076385240499
aF8.829748884356011e-05
ag352
ag352
aF0.10046571787672227
aF0.00033430734159648623
aF0.10550818015381522
aF0.005676626862793236
aF0.10574360089184506
aF0.0008514586371250714
aF0.08159757018065464
aF0.0017610154227710702
aF0.01252844198246008
aF3.2963226297339526e-05
aF0.02497168005438206
aF0.0012880371738556644
aF0.019243259378915724
aF3.2541807635479353e-05
aF0.013271855290088182
aF8.833594392725719e-05
ag352
ag352
aF0.10046571787672227
aF0.00033430734159648623
aF0.10550818015381522
aF0.005676626862793236
aF0.10574360089184506
aF0.0008514586371250714
aF0.08159757018065464
aF0.0017610154227710702
aF0.01252844198246008
aF3.2963226297339526e-05
aF0.02497168005438206
aF0.0012880371738556644
aF0.019243259378915724
aF3.2541807635479353e-05
aF0.013271855290088182
aF8.833594392725719e-05
ag352
ag352
aF0.10044454452747222
aF0.00033418713974751885
aF0.10545326413862353
aF0.005674774508018036
aF0.10580306033866463
aF0.0008528075298929291
aF0.08160206771357997
aF0.0017605563250001832
aF0.012522409079167367
aF3.286699806812268e-05
aF0.024958226571854255
aF0.0012871617253636686
aF0.01925923852320097
aF3.248508993879154e-05
aF0.013271271992418461
aF8.838404252023474e-05
ag352
ag352
aF0.10044454452747222
aF0.00033418713974751885
aF0.10545326413862353
aF0.005674774508018036
aF0.10580306033866463
aF0.0008528075298929291
aF0.08160206771357997
aF0.0017605563250001832
aF0.012522409079167367
aF3.286699806812268e-05
aF0.024958226571854255
aF0.0012871617253636686
aF0.01925923852320097
aF3.248508993879154e-05
aF0.013271271992418461
aF8.838404252023474e-05
ag352
ag352
aF0.10044250187368085
aF0.0003342054194575493
aF0.10549812645836762
aF0.0056736134822487055
aF0.1057343424077819
aF0.0008500423627144279
aF0.0815569272915966
aF0.001759860319705461
aF0.012524864462459774
aF3.2878611482346094e-05
aF0.02497438734840667
aF0.001287856180158068
aF0.019250663722545816
aF3.258592063181622e-05
aF0.013265529877856968
aF8.82999862704197e-05
ag352
ag352
aF0.10044250187368085
aF0.0003342054194575493
aF0.10549812645836762
aF0.0056736134822487055
aF0.1057343424077819
aF0.0008500423627144279
aF0.0815569272915966
aF0.001759860319705461
aF0.012524864462459774
aF3.2878611482346094e-05
aF0.02497438734840667
aF0.001287856180158068
aF0.019250663722545816
aF3.258592063181622e-05
aF0.013265529877856968
aF8.82999862704197e-05
ag352
ag352
aF0.10045999065749606
aF0.0003341904038703702
aF0.10551411714105892
aF0.005674396613167969
aF0.10575453459061893
aF0.0008513283761948426
aF0.08159019367263523
aF0.0017608394211514802
aF0.012525805089869581
aF3.2965792295506173e-05
aF0.02497918336371486
aF0.001288547988972843
aF0.01925317838502015
aF3.258494396698973e-05
aF0.01326980561495302
aF8.830818993872304e-05
ag352
ag352
aF0.10045999065749606
aF0.0003341904038703702
aF0.10551411714105892
aF0.005674396613167969
aF0.10575453459061893
aF0.0008513283761948426
aF0.08159019367263523
aF0.0017608394211514802
aF0.012525805089869581
aF3.2965792295506173e-05
aF0.02497918336371486
aF0.001288547988972843
aF0.01925317838502015
aF3.258494396698973e-05
aF0.01326980561495302
aF8.830818993872304e-05
ag352
ag352
aF0.10044683965267513
aF0.00033412098529299593
aF0.10546480271638646
aF0.00567727585862734
aF0.10578043762292792
aF0.000851561500121596
aF0.081603361992525
aF0.001760616551660467
aF0.012523978546355948
aF3.293128534395977e-05
aF0.024964568081744746
aF0.0012868388532681916
aF0.019248853743505386
aF3.240362125606654e-05
aF0.01327382847117017
aF8.840006291302691e-05
ag352
ag352
aF0.10044683965267513
aF0.00033412098529299593
aF0.10546480271638646
aF0.00567727585862734
aF0.10578043762292792
aF0.000851561500121596
aF0.081603361992525
aF0.001760616551660467
aF0.012523978546355948
aF3.293128534395977e-05
aF0.024964568081744746
aF0.0012868388532681916
aF0.019248853743505386
aF3.240362125606654e-05
aF0.01327382847117017
aF8.840006291302691e-05
ag352
ag352
aF0.1004570112252111
aF0.00033422872805225845
aF0.10550122871595286
aF0.0056708160911566755
aF0.10574535061721395
aF0.0008517338558422917
aF0.08158539978719656
aF0.0017608239294955167
aF0.012527802451392981
aF3.290814338118899e-05
aF0.02497528964821847
aF0.0012889166712033123
aF0.01925867653860501
aF3.2524558306237785e-05
aF0.013270380164312225
aF8.824320910318708e-05
ag352
ag352
aF0.1004570112252111
aF0.00033422872805225845
aF0.10550122871595286
aF0.0056708160911566755
aF0.10574535061721395
aF0.0008517338558422917
aF0.08158539978719656
aF0.0017608239294955167
aF0.012527802451392981
aF3.290814338118899e-05
aF0.02497528964821847
aF0.0012889166712033123
aF0.01925867653860501
aF3.2524558306237785e-05
aF0.013270380164312225
aF8.824320910318708e-05
ag352
ag352
aF0.10045751780094582
aF0.0003343150924371389
aF0.10548385513905907
aF0.005669853319201287
aF0.10576655178618806
aF0.0008524146108649231
aF0.08161265266814272
aF0.0017614450396814156
aF0.01252641767529894
aF3.295896405568673e-05
aF0.02496977377170775
aF0.0012892073922906797
aF0.019257663937613675
aF3.261873262153454e-05
aF0.013274426449315835
aF8.835987512094047e-05
ag352
ag352
aF0.10045751780094582
aF0.0003343150924371389
aF0.10548385513905907
aF0.005669853319201287
aF0.10576655178618806
aF0.0008524146108649231
aF0.08161265266814272
aF0.0017614450396814156
aF0.01252641767529894
aF3.295896405568673e-05
aF0.02496977377170775
aF0.0012892073922906797
aF0.019257663937613675
aF3.261873262153454e-05
aF0.013274426449315835
aF8.835987512094047e-05
ag352
ag352
aF0.10046620041922383
aF0.0003342603671349283
aF0.1055041174302934
aF0.005673517828103423
aF0.10574322315107015
aF0.0008518555454025772
aF0.08161238516043387
aF0.0017614457641594466
aF0.012529231765059523
aF3.295394198538896e-05
aF0.024974006705762473
aF0.0012889369917512908
aF0.01925216592902224
aF3.2617675286651036e-05
aF0.013275748711254864
aF8.836983199151859e-05
ag352
ag352
aF0.10046620041922383
aF0.0003342603671349283
aF0.1055041174302934
aF0.005673517828103423
aF0.10574322315107015
aF0.0008518555454025772
aF0.08161238516043387
aF0.0017614457641594466
aF0.012529231765059523
aF3.295394198538896e-05
aF0.024974006705762473
aF0.0012889369917512908
aF0.01925216592902224
aF3.2617675286651036e-05
aF0.013275748711254864
aF8.836983199151859e-05
ag352
ag352
aF0.10045444484249404
aF0.0003342199202519457
aF0.10547783145113383
aF0.0056726725038310465
aF0.10576925428633806
aF0.0008517954263661783
aF0.08159830582882627
aF0.0017609958614068259
aF0.01252640865445904
aF3.293117314857908e-05
aF0.024967764035094906
aF0.001288117601073931
aF0.019254714304935704
aF3.247662670148498e-05
aF0.01327225492732975
aF8.832050116010392e-05
ag352
ag352
aF0.10045444484249404
aF0.0003342199202519457
aF0.10547783145113383
aF0.0056726725038310465
aF0.10576925428633806
aF0.0008517954263661783
aF0.08159830582882627
aF0.0017609958614068259
aF0.01252640865445904
aF3.293117314857908e-05
aF0.024967764035094906
aF0.001288117601073931
aF0.019254714304935704
aF3.247662670148498e-05
aF0.01327225492732975
aF8.832050116010392e-05
ag352
ag352
atp421
ba(lp422
g15
(g16
(dp423
g18
g19
(g20
(I0
tp424
g22
tp425
Rp426
(I1
(I1
tp427
g29
I00
(lp428
g43
atp429
bsg282
Nstp430
Rp431
ag15
(g16
(dp432
g18
g19
(g20
(I0
tp433
g22
tp434
Rp435
(I1
(I247
tp436
g29
I00
(lp437
g33
ag34
ag35
ag36
ag37
ag38
ag39
ag40
ag41
ag42
ag44
ag45
ag46
ag47
ag48
ag49
ag50
ag51
ag52
ag53
ag54
ag55
ag56
ag57
ag58
ag59
ag60
ag61
ag62
ag63
ag64
ag65
ag66
ag67
ag68
ag69
ag70
ag71
ag72
ag73
ag74
ag75
ag76
ag77
ag78
ag79
ag80
ag81
ag82
ag83
ag84
ag85
ag86
ag87
ag88
ag89
ag90
ag91
ag92
ag93
ag94
ag95
ag96
ag97
ag98
ag99
ag100
ag101
ag102
ag103
ag104
ag105
ag106
ag107
ag108
ag109
ag110
ag111
ag112
ag113
ag114
ag115
ag116
ag117
ag118
ag119
ag120
ag121
ag122
ag123
ag124
ag125
ag126
ag127
ag128
ag129
ag130
ag131
ag132
ag133
ag134
ag135
ag136
ag137
ag138
ag139
ag140
ag141
ag142
ag143
ag144
ag145
ag146
ag147
ag148
ag149
ag150
ag151
ag152
ag153
ag154
ag155
ag156
ag157
ag158
ag159
ag160
ag161
ag162
ag163
ag164
ag165
ag166
ag167
ag168
ag169
ag170
ag171
ag172
ag173
ag174
ag175
ag176
ag177
ag178
ag179
ag180
ag181
ag182
ag183
ag184
ag185
ag186
ag187
ag188
ag189
ag190
ag191
ag192
ag193
ag194
ag195
ag196
ag197
ag198
ag199
ag200
ag201
ag202
ag203
ag204
ag205
ag206
ag207
ag208
ag209
ag210
ag211
ag212
ag213
ag214
ag215
ag216
ag217
ag218
ag219
ag220
ag221
ag222
ag223
ag224
ag225
ag226
ag227
ag228
ag229
ag230
ag231
ag232
ag233
ag234
ag235
ag236
ag237
ag238
ag239
ag240
ag241
ag242
ag243
ag244
ag245
ag246
ag247
ag248
ag249
ag250
ag251
ag252
ag253
ag254
ag255
ag256
ag257
ag258
ag259
ag260
ag261
ag262
ag263
ag264
ag265
ag266
ag267
ag268
ag269
ag270
ag271
ag272
ag273
ag274
ag275
ag276
ag277
ag278
ag279
ag280
atp438
bsg282
Nstp439
Rp440
a(dp441
S'0.14.1'
p442
(dp443
S'axes'
p444
g14
sS'blocks'
p445
(lp446
(dp447
S'mgr_locs'
p448
c__builtin__
slice
p449
(I10
I11
I1
tp450
Rp451
sS'values'
p452
g303
sa(dp453
g448
g19
(g20
(I0
tp454
g22
tp455
Rp456
(I1
(I247
tp457
g293
I00
S'\x00\x00\x00\x00\x00\x00\x00\x00\x01\x00\x00\x00\x00\x00\x00\x00\x02\x00\x00\x00\x00\x00\x00\x00\x03\x00\x00\x00\x00\x00\x00\x00\x04\x00\x00\x00\x00\x00\x00\x00\x05\x00\x00\x00\x00\x00\x00\x00\x06\x00\x00\x00\x00\x00\x00\x00\x07\x00\x00\x00\x00\x00\x00\x00\x08\x00\x00\x00\x00\x00\x00\x00\t\x00\x00\x00\x00\x00\x00\x00\x0b\x00\x00\x00\x00\x00\x00\x00\x0c\x00\x00\x00\x00\x00\x00\x00\r\x00\x00\x00\x00\x00\x00\x00\x0e\x00\x00\x00\x00\x00\x00\x00\x0f\x00\x00\x00\x00\x00\x00\x00\x10\x00\x00\x00\x00\x00\x00\x00\x11\x00\x00\x00\x00\x00\x00\x00\x12\x00\x00\x00\x00\x00\x00\x00\x13\x00\x00\x00\x00\x00\x00\x00\x14\x00\x00\x00\x00\x00\x00\x00\x15\x00\x00\x00\x00\x00\x00\x00\x16\x00\x00\x00\x00\x00\x00\x00\x17\x00\x00\x00\x00\x00\x00\x00\x18\x00\x00\x00\x00\x00\x00\x00\x19\x00\x00\x00\x00\x00\x00\x00\x1a\x00\x00\x00\x00\x00\x00\x00\x1b\x00\x00\x00\x00\x00\x00\x00\x1c\x00\x00\x00\x00\x00\x00\x00\x1d\x00\x00\x00\x00\x00\x00\x00\x1e\x00\x00\x00\x00\x00\x00\x00\x1f\x00\x00\x00\x00\x00\x00\x00 \x00\x00\x00\x00\x00\x00\x00!\x00\x00\x00\x00\x00\x00\x00"\x00\x00\x00\x00\x00\x00\x00#\x00\x00\x00\x00\x00\x00\x00$\x00\x00\x00\x00\x00\x00\x00%\x00\x00\x00\x00\x00\x00\x00&\x00\x00\x00\x00\x00\x00\x00\'\x00\x00\x00\x00\x00\x00\x00(\x00\x00\x00\x00\x00\x00\x00)\x00\x00\x00\x00\x00\x00\x00*\x00\x00\x00\x00\x00\x00\x00+\x00\x00\x00\x00\x00\x00\x00,\x00\x00\x00\x00\x00\x00\x00-\x00\x00\x00\x00\x00\x00\x00.\x00\x00\x00\x00\x00\x00\x00/\x00\x00\x00\x00\x00\x00\x000\x00\x00\x00\x00\x00\x00\x001\x00\x00\x00\x00\x00\x00\x002\x00\x00\x00\x00\x00\x00\x003\x00\x00\x00\x00\x00\x00\x004\x00\x00\x00\x00\x00\x00\x005\x00\x00\x00\x00\x00\x00\x006\x00\x00\x00\x00\x00\x00\x007\x00\x00\x00\x00\x00\x00\x008\x00\x00\x00\x00\x00\x00\x009\x00\x00\x00\x00\x00\x00\x00:\x00\x00\x00\x00\x00\x00\x00;\x00\x00\x00\x00\x00\x00\x00<\x00\x00\x00\x00\x00\x00\x00=\x00\x00\x00\x00\x00\x00\x00>\x00\x00\x00\x00\x00\x00\x00?\x00\x00\x00\x00\x00\x00\x00@\x00\x00\x00\x00\x00\x00\x00A\x00\x00\x00\x00\x00\x00\x00B\x00\x00\x00\x00\x00\x00\x00C\x00\x00\x00\x00\x00\x00\x00D\x00\x00\x00\x00\x00\x00\x00E\x00\x00\x00\x00\x00\x00\x00F\x00\x00\x00\x00\x00\x00\x00G\x00\x00\x00\x00\x00\x00\x00H\x00\x00\x00\x00\x00\x00\x00I\x00\x00\x00\x00\x00\x00\x00J\x00\x00\x00\x00\x00\x00\x00K\x00\x00\x00\x00\x00\x00\x00L\x00\x00\x00\x00\x00\x00\x00M\x00\x00\x00\x00\x00\x00\x00N\x00\x00\x00\x00\x00\x00\x00O\x00\x00\x00\x00\x00\x00\x00P\x00\x00\x00\x00\x00\x00\x00Q\x00\x00\x00\x00\x00\x00\x00R\x00\x00\x00\x00\x00\x00\x00S\x00\x00\x00\x00\x00\x00\x00T\x00\x00\x00\x00\x00\x00\x00U\x00\x00\x00\x00\x00\x00\x00V\x00\x00\x00\x00\x00\x00\x00W\x00\x00\x00\x00\x00\x00\x00X\x00\x00\x00\x00\x00\x00\x00Y\x00\x00\x00\x00\x00\x00\x00Z\x00\x00\x00\x00\x00\x00\x00[\x00\x00\x00\x00\x00\x00\x00\\\x00\x00\x00\x00\x00\x00\x00]\x00\x00\x00\x00\x00\x00\x00^\x00\x00\x00\x00\x00\x00\x00_\x00\x00\x00\x00\x00\x00\x00`\x00\x00\x00\x00\x00\x00\x00a\x00\x00\x00\x00\x00\x00\x00b\x00\x00\x00\x00\x00\x00\x00c\x00\x00\x00\x00\x00\x00\x00d\x00\x00\x00\x00\x00\x00\x00e\x00\x00\x00\x00\x00\x00\x00f\x00\x00\x00\x00\x00\x00\x00g\x00\x00\x00\x00\x00\x00\x00h\x00\x00\x00\x00\x00\x00\x00i\x00\x00\x00\x00\x00\x00\x00j\x00\x00\x00\x00\x00\x00\x00k\x00\x00\x00\x00\x00\x00\x00l\x00\x00\x00\x00\x00\x00\x00m\x00\x00\x00\x00\x00\x00\x00n\x00\x00\x00\x00\x00\x00\x00o\x00\x00\x00\x00\x00\x00\x00p\x00\x00\x00\x00\x00\x00\x00q\x00\x00\x00\x00\x00\x00\x00r\x00\x00\x00\x00\x00\x00\x00s\x00\x00\x00\x00\x00\x00\x00t\x00\x00\x00\x00\x00\x00\x00u\x00\x00\x00\x00\x00\x00\x00v\x00\x00\x00\x00\x00\x00\x00w\x00\x00\x00\x00\x00\x00\x00x\x00\x00\x00\x00\x00\x00\x00y\x00\x00\x00\x00\x00\x00\x00z\x00\x00\x00\x00\x00\x00\x00{\x00\x00\x00\x00\x00\x00\x00|\x00\x00\x00\x00\x00\x00\x00}\x00\x00\x00\x00\x00\x00\x00~\x00\x00\x00\x00\x00\x00\x00\x7f\x00\x00\x00\x00\x00\x00\x00\x80\x00\x00\x00\x00\x00\x00\x00\x81\x00\x00\x00\x00\x00\x00\x00\x82\x00\x00\x00\x00\x00\x00\x00\x83\x00\x00\x00\x00\x00\x00\x00\x84\x00\x00\x00\x00\x00\x00\x00\x85\x00\x00\x00\x00\x00\x00\x00\x86\x00\x00\x00\x00\x00\x00\x00\x87\x00\x00\x00\x00\x00\x00\x00\x88\x00\x00\x00\x00\x00\x00\x00\x89\x00\x00\x00\x00\x00\x00\x00\x8a\x00\x00\x00\x00\x00\x00\x00\x8b\x00\x00\x00\x00\x00\x00\x00\x8c\x00\x00\x00\x00\x00\x00\x00\x8d\x00\x00\x00\x00\x00\x00\x00\x8e\x00\x00\x00\x00\x00\x00\x00\x8f\x00\x00\x00\x00\x00\x00\x00\x90\x00\x00\x00\x00\x00\x00\x00\x91\x00\x00\x00\x00\x00\x00\x00\x92\x00\x00\x00\x00\x00\x00\x00\x93\x00\x00\x00\x00\x00\x00\x00\x94\x00\x00\x00\x00\x00\x00\x00\x95\x00\x00\x00\x00\x00\x00\x00\x96\x00\x00\x00\x00\x00\x00\x00\x97\x00\x00\x00\x00\x00\x00\x00\x98\x00\x00\x00\x00\x00\x00\x00\x99\x00\x00\x00\x00\x00\x00\x00\x9a\x00\x00\x00\x00\x00\x00\x00\x9b\x00\x00\x00\x00\x00\x00\x00\x9c\x00\x00\x00\x00\x00\x00\x00\x9d\x00\x00\x00\x00\x00\x00\x00\x9e\x00\x00\x00\x00\x00\x00\x00\x9f\x00\x00\x00\x00\x00\x00\x00\xa0\x00\x00\x00\x00\x00\x00\x00\xa1\x00\x00\x00\x00\x00\x00\x00\xa2\x00\x00\x00\x00\x00\x00\x00\xa3\x00\x00\x00\x00\x00\x00\x00\xa4\x00\x00\x00\x00\x00\x00\x00\xa5\x00\x00\x00\x00\x00\x00\x00\xa6\x00\x00\x00\x00\x00\x00\x00\xa7\x00\x00\x00\x00\x00\x00\x00\xa8\x00\x00\x00\x00\x00\x00\x00\xa9\x00\x00\x00\x00\x00\x00\x00\xaa\x00\x00\x00\x00\x00\x00\x00\xab\x00\x00\x00\x00\x00\x00\x00\xac\x00\x00\x00\x00\x00\x00\x00\xad\x00\x00\x00\x00\x00\x00\x00\xae\x00\x00\x00\x00\x00\x00\x00\xaf\x00\x00\x00\x00\x00\x00\x00\xb0\x00\x00\x00\x00\x00\x00\x00\xb1\x00\x00\x00\x00\x00\x00\x00\xb2\x00\x00\x00\x00\x00\x00\x00\xb3\x00\x00\x00\x00\x00\x00\x00\xb4\x00\x00\x00\x00\x00\x00\x00\xb5\x00\x00\x00\x00\x00\x00\x00\xb6\x00\x00\x00\x00\x00\x00\x00\xb7\x00\x00\x00\x00\x00\x00\x00\xb8\x00\x00\x00\x00\x00\x00\x00\xb9\x00\x00\x00\x00\x00\x00\x00\xba\x00\x00\x00\x00\x00\x00\x00\xbb\x00\x00\x00\x00\x00\x00\x00\xbc\x00\x00\x00\x00\x00\x00\x00\xbd\x00\x00\x00\x00\x00\x00\x00\xbe\x00\x00\x00\x00\x00\x00\x00\xbf\x00\x00\x00\x00\x00\x00\x00\xc0\x00\x00\x00\x00\x00\x00\x00\xc1\x00\x00\x00\x00\x00\x00\x00\xc2\x00\x00\x00\x00\x00\x00\x00\xc3\x00\x00\x00\x00\x00\x00\x00\xc4\x00\x00\x00\x00\x00\x00\x00\xc5\x00\x00\x00\x00\x00\x00\x00\xc6\x00\x00\x00\x00\x00\x00\x00\xc7\x00\x00\x00\x00\x00\x00\x00\xc8\x00\x00\x00\x00\x00\x00\x00\xc9\x00\x00\x00\x00\x00\x00\x00\xca\x00\x00\x00\x00\x00\x00\x00\xcb\x00\x00\x00\x00\x00\x00\x00\xcc\x00\x00\x00\x00\x00\x00\x00\xcd\x00\x00\x00\x00\x00\x00\x00\xce\x00\x00\x00\x00\x00\x00\x00\xcf\x00\x00\x00\x00\x00\x00\x00\xd0\x00\x00\x00\x00\x00\x00\x00\xd1\x00\x00\x00\x00\x00\x00\x00\xd2\x00\x00\x00\x00\x00\x00\x00\xd3\x00\x00\x00\x00\x00\x00\x00\xd4\x00\x00\x00\x00\x00\x00\x00\xd5\x00\x00\x00\x00\x00\x00\x00\xd6\x00\x00\x00\x00\x00\x00\x00\xd7\x00\x00\x00\x00\x00\x00\x00\xd8\x00\x00\x00\x00\x00\x00\x00\xd9\x00\x00\x00\x00\x00\x00\x00\xda\x00\x00\x00\x00\x00\x00\x00\xdb\x00\x00\x00\x00\x00\x00\x00\xdc\x00\x00\x00\x00\x00\x00\x00\xdd\x00\x00\x00\x00\x00\x00\x00\xde\x00\x00\x00\x00\x00\x00\x00\xdf\x00\x00\x00\x00\x00\x00\x00\xe0\x00\x00\x00\x00\x00\x00\x00\xe1\x00\x00\x00\x00\x00\x00\x00\xe2\x00\x00\x00\x00\x00\x00\x00\xe3\x00\x00\x00\x00\x00\x00\x00\xe4\x00\x00\x00\x00\x00\x00\x00\xe5\x00\x00\x00\x00\x00\x00\x00\xe6\x00\x00\x00\x00\x00\x00\x00\xe7\x00\x00\x00\x00\x00\x00\x00\xe8\x00\x00\x00\x00\x00\x00\x00\xe9\x00\x00\x00\x00\x00\x00\x00\xea\x00\x00\x00\x00\x00\x00\x00\xeb\x00\x00\x00\x00\x00\x00\x00\xec\x00\x00\x00\x00\x00\x00\x00\xed\x00\x00\x00\x00\x00\x00\x00\xee\x00\x00\x00\x00\x00\x00\x00\xef\x00\x00\x00\x00\x00\x00\x00\xf0\x00\x00\x00\x00\x00\x00\x00\xf1\x00\x00\x00\x00\x00\x00\x00\xf2\x00\x00\x00\x00\x00\x00\x00\xf3\x00\x00\x00\x00\x00\x00\x00\xf4\x00\x00\x00\x00\x00\x00\x00\xf5\x00\x00\x00\x00\x00\x00\x00\xf6\x00\x00\x00\x00\x00\x00\x00\xf7\x00\x00\x00\x00\x00\x00\x00'
p458
tp459
bsg452
g314
sasstp460
bsb.