ccopy_reg
_reconstructor
p0
(cpandas.core.frame
DataFrame
p1
c__builtin__
object
p2
Ntp3
Rp4
(dp5
S'_metadata'
p6
(lp7
sS'_typ'
p8
S'dataframe'
p9
sS'_data'
p10
g0
(cpandas.core.internals
BlockManager
p11
g2
Ntp12
Rp13
((lp14
cpandas.core.indexes.base
_new_Index
p15
(cpandas.core.indexes.base
Index
p16
(dp17
S'data'
p18
cnumpy.core.multiarray
_reconstruct
p19
(cnumpy
ndarray
p20
(I0
tp21
S'b'
p22
tp23
Rp24
(I1
(I248
tp25
cnumpy
dtype
p26
(S'O8'
p27
I0
I1
tp28
Rp29
(I3
S'|'
p30
NNNI-1
I-1
I63
tp31
bI00
(lp32
S'year'
p33
aS'type'
p34
aS'procOriginal'
p35
aS'proc'
p36
aS'proc_s0'
p37
aS'cat'
p38
aS'inputWSFile'
p39
aS'nominalDataName'
p40
aS'modelWSFile'
p41
aS'model'
p42
aS'rate'
p43
aS'nominal_yield'
p44
aS'sumw2'
p45
aS'nominal_yield_COWCorr'
p46
aS'weight_Pileup_up_yield'
p47
aS'weight_Pileup_down_yield'
p48
aS'weight_TriggerSF_up_yield'
p49
aS'weight_TriggerSF_down_yield'
p50
aS'weight_ElectronVetoSF_up_yield'
p51
aS'weight_ElectronVetoSF_down_yield'
p52
aS'weight_PreselSF_up_yield'
p53
aS'weight_PreselSF_down_yield'
p54
aS'energyErrShift_up_yield'
p55
aS'energyErrShift_down_yield'
p56
aS'weight_LHEScal_0_yield'
p57
aS'weight_LHEScal_0_yield_COWCorr'
p58
aS'weight_LHEScal_1_yield'
p59
aS'weight_LHEScal_1_yield_COWCorr'
p60
aS'weight_LHEScal_3_yield'
p61
aS'weight_LHEScal_3_yield_COWCorr'
p62
aS'weight_LHEScal_5_yield'
p63
aS'weight_LHEScal_5_yield_COWCorr'
p64
aS'weight_LHEScal_7_yield'
p65
aS'weight_LHEScal_7_yield_COWCorr'
p66
aS'weight_LHEScal_8_yield'
p67
aS'weight_LHEScal_8_yield_COWCorr'
p68
aS'weight_AlphaS_up_yield'
p69
aS'weight_AlphaS_down_yield'
p70
aS'weight_AlphaS_up_yield_COWCorr'
p71
aS'weight_AlphaS_down_yield_COWCorr'
p72
aS'weight_PS_ISR_up_yield'
p73
aS'weight_PS_ISR_down_yield'
p74
aS'weight_PS_ISR_up_yield_COWCorr'
p75
aS'weight_PS_ISR_down_yield_COWCorr'
p76
aS'weight_PS_FSR_up_yield'
p77
aS'weight_PS_FSR_down_yield'
p78
aS'weight_PS_FSR_up_yield_COWCorr'
p79
aS'weight_PS_FSR_down_yield_COWCorr'
p80
aS'weight_LHEPd_1_yield'
p81
aS'weight_LHEPd_1_yield_COWCorr'
p82
aS'weight_LHEPd_2_yield'
p83
aS'weight_LHEPd_2_yield_COWCorr'
p84
aS'weight_LHEPd_3_yield'
p85
aS'weight_LHEPd_3_yield_COWCorr'
p86
aS'weight_LHEPd_4_yield'
p87
aS'weight_LHEPd_4_yield_COWCorr'
p88
aS'weight_LHEPd_5_yield'
p89
aS'weight_LHEPd_5_yield_COWCorr'
p90
aS'weight_LHEPd_6_yield'
p91
aS'weight_LHEPd_6_yield_COWCorr'
p92
aS'weight_LHEPd_7_yield'
p93
aS'weight_LHEPd_7_yield_COWCorr'
p94
aS'weight_LHEPd_8_yield'
p95
aS'weight_LHEPd_8_yield_COWCorr'
p96
aS'weight_LHEPd_9_yield'
p97
aS'weight_LHEPd_9_yield_COWCorr'
p98
aS'weight_LHEPd_10_yield'
p99
aS'weight_LHEPd_10_yield_COWCorr'
p100
aS'weight_LHEPd_11_yield'
p101
aS'weight_LHEPd_11_yield_COWCorr'
p102
aS'weight_LHEPd_12_yield'
p103
aS'weight_LHEPd_12_yield_COWCorr'
p104
aS'weight_LHEPd_13_yield'
p105
aS'weight_LHEPd_13_yield_COWCorr'
p106
aS'weight_LHEPd_14_yield'
p107
aS'weight_LHEPd_14_yield_COWCorr'
p108
aS'weight_LHEPd_15_yield'
p109
aS'weight_LHEPd_15_yield_COWCorr'
p110
aS'weight_LHEPd_16_yield'
p111
aS'weight_LHEPd_16_yield_COWCorr'
p112
aS'weight_LHEPd_17_yield'
p113
aS'weight_LHEPd_17_yield_COWCorr'
p114
aS'weight_LHEPd_18_yield'
p115
aS'weight_LHEPd_18_yield_COWCorr'
p116
aS'weight_LHEPd_19_yield'
p117
aS'weight_LHEPd_19_yield_COWCorr'
p118
aS'weight_LHEPd_20_yield'
p119
aS'weight_LHEPd_20_yield_COWCorr'
p120
aS'weight_LHEPd_21_yield'
p121
aS'weight_LHEPd_21_yield_COWCorr'
p122
aS'weight_LHEPd_22_yield'
p123
aS'weight_LHEPd_22_yield_COWCorr'
p124
aS'weight_LHEPd_23_yield'
p125
aS'weight_LHEPd_23_yield_COWCorr'
p126
aS'weight_LHEPd_24_yield'
p127
aS'weight_LHEPd_24_yield_COWCorr'
p128
aS'weight_LHEPd_25_yield'
p129
aS'weight_LHEPd_25_yield_COWCorr'
p130
aS'weight_LHEPd_26_yield'
p131
aS'weight_LHEPd_26_yield_COWCorr'
p132
aS'weight_LHEPd_27_yield'
p133
aS'weight_LHEPd_27_yield_COWCorr'
p134
aS'weight_LHEPd_28_yield'
p135
aS'weight_LHEPd_28_yield_COWCorr'
p136
aS'weight_LHEPd_29_yield'
p137
aS'weight_LHEPd_29_yield_COWCorr'
p138
aS'weight_LHEPd_30_yield'
p139
aS'weight_LHEPd_30_yield_COWCorr'
p140
aS'weight_LHEPd_31_yield'
p141
aS'weight_LHEPd_31_yield_COWCorr'
p142
aS'weight_LHEPd_32_yield'
p143
aS'weight_LHEPd_32_yield_COWCorr'
p144
aS'weight_LHEPd_33_yield'
p145
aS'weight_LHEPd_33_yield_COWCorr'
p146
aS'weight_LHEPd_34_yield'
p147
aS'weight_LHEPd_34_yield_COWCorr'
p148
aS'weight_LHEPd_35_yield'
p149
aS'weight_LHEPd_35_yield_COWCorr'
p150
aS'weight_LHEPd_36_yield'
p151
aS'weight_LHEPd_36_yield_COWCorr'
p152
aS'weight_LHEPd_37_yield'
p153
aS'weight_LHEPd_37_yield_COWCorr'
p154
aS'weight_LHEPd_38_yield'
p155
aS'weight_LHEPd_38_yield_COWCorr'
p156
aS'weight_LHEPd_39_yield'
p157
aS'weight_LHEPd_39_yield_COWCorr'
p158
aS'weight_LHEPd_40_yield'
p159
aS'weight_LHEPd_40_yield_COWCorr'
p160
aS'weight_LHEPd_41_yield'
p161
aS'weight_LHEPd_41_yield_COWCorr'
p162
aS'weight_LHEPd_42_yield'
p163
aS'weight_LHEPd_42_yield_COWCorr'
p164
aS'weight_LHEPd_43_yield'
p165
aS'weight_LHEPd_43_yield_COWCorr'
p166
aS'weight_LHEPd_44_yield'
p167
aS'weight_LHEPd_44_yield_COWCorr'
p168
aS'weight_LHEPd_45_yield'
p169
aS'weight_LHEPd_45_yield_COWCorr'
p170
aS'weight_LHEPd_46_yield'
p171
aS'weight_LHEPd_46_yield_COWCorr'
p172
aS'weight_LHEPd_47_yield'
p173
aS'weight_LHEPd_47_yield_COWCorr'
p174
aS'weight_LHEPd_48_yield'
p175
aS'weight_LHEPd_48_yield_COWCorr'
p176
aS'weight_LHEPd_49_yield'
p177
aS'weight_LHEPd_49_yield_COWCorr'
p178
aS'weight_LHEPd_50_yield'
p179
aS'weight_LHEPd_50_yield_COWCorr'
p180
aS'weight_LHEPd_51_yield'
p181
aS'weight_LHEPd_51_yield_COWCorr'
p182
aS'weight_LHEPd_52_yield'
p183
aS'weight_LHEPd_52_yield_COWCorr'
p184
aS'weight_LHEPd_53_yield'
p185
aS'weight_LHEPd_53_yield_COWCorr'
p186
aS'weight_LHEPd_54_yield'
p187
aS'weight_LHEPd_54_yield_COWCorr'
p188
aS'weight_LHEPd_55_yield'
p189
aS'weight_LHEPd_55_yield_COWCorr'
p190
aS'weight_LHEPd_56_yield'
p191
aS'weight_LHEPd_56_yield_COWCorr'
p192
aS'weight_LHEPd_57_yield'
p193
aS'weight_LHEPd_57_yield_COWCorr'
p194
aS'weight_LHEPd_58_yield'
p195
aS'weight_LHEPd_58_yield_COWCorr'
p196
aS'weight_LHEPd_59_yield'
p197
aS'weight_LHEPd_59_yield_COWCorr'
p198
aS'weight_LHEPd_60_yield'
p199
aS'weight_LHEPd_60_yield_COWCorr'
p200
aS'weight_LHEPd_61_yield'
p201
aS'weight_LHEPd_61_yield_COWCorr'
p202
aS'weight_LHEPd_62_yield'
p203
aS'weight_LHEPd_62_yield_COWCorr'
p204
aS'weight_LHEPd_63_yield'
p205
aS'weight_LHEPd_63_yield_COWCorr'
p206
aS'weight_LHEPd_64_yield'
p207
aS'weight_LHEPd_64_yield_COWCorr'
p208
aS'weight_LHEPd_65_yield'
p209
aS'weight_LHEPd_65_yield_COWCorr'
p210
aS'weight_LHEPd_66_yield'
p211
aS'weight_LHEPd_66_yield_COWCorr'
p212
aS'weight_LHEPd_67_yield'
p213
aS'weight_LHEPd_67_yield_COWCorr'
p214
aS'weight_LHEPd_68_yield'
p215
aS'weight_LHEPd_68_yield_COWCorr'
p216
aS'weight_LHEPd_69_yield'
p217
aS'weight_LHEPd_69_yield_COWCorr'
p218
aS'weight_LHEPd_70_yield'
p219
aS'weight_LHEPd_70_yield_COWCorr'
p220
aS'weight_LHEPd_71_yield'
p221
aS'weight_LHEPd_71_yield_COWCorr'
p222
aS'weight_LHEPd_72_yield'
p223
aS'weight_LHEPd_72_yield_COWCorr'
p224
aS'weight_LHEPd_73_yield'
p225
aS'weight_LHEPd_73_yield_COWCorr'
p226
aS'weight_LHEPd_74_yield'
p227
aS'weight_LHEPd_74_yield_COWCorr'
p228
aS'weight_LHEPd_75_yield'
p229
aS'weight_LHEPd_75_yield_COWCorr'
p230
aS'weight_LHEPd_76_yield'
p231
aS'weight_LHEPd_76_yield_COWCorr'
p232
aS'weight_LHEPd_77_yield'
p233
aS'weight_LHEPd_77_yield_COWCorr'
p234
aS'weight_LHEPd_78_yield'
p235
aS'weight_LHEPd_78_yield_COWCorr'
p236
aS'weight_LHEPd_79_yield'
p237
aS'weight_LHEPd_79_yield_COWCorr'
p238
aS'weight_LHEPd_80_yield'
p239
aS'weight_LHEPd_80_yield_COWCorr'
p240
aS'weight_LHEPd_81_yield'
p241
aS'weight_LHEPd_81_yield_COWCorr'
p242
aS'weight_LHEPd_82_yield'
p243
aS'weight_LHEPd_82_yield_COWCorr'
p244
aS'weight_LHEPd_83_yield'
p245
aS'weight_LHEPd_83_yield_COWCorr'
p246
aS'weight_LHEPd_84_yield'
p247
aS'weight_LHEPd_84_yield_COWCorr'
p248
aS'weight_LHEPd_85_yield'
p249
aS'weight_LHEPd_85_yield_COWCorr'
p250
aS'weight_LHEPd_86_yield'
p251
aS'weight_LHEPd_86_yield_COWCorr'
p252
aS'weight_LHEPd_87_yield'
p253
aS'weight_LHEPd_87_yield_COWCorr'
p254
aS'weight_LHEPd_88_yield'
p255
aS'weight_LHEPd_88_yield_COWCorr'
p256
aS'weight_LHEPd_89_yield'
p257
aS'weight_LHEPd_89_yield_COWCorr'
p258
aS'weight_LHEPd_90_yield'
p259
aS'weight_LHEPd_90_yield_COWCorr'
p260
aS'weight_LHEPd_91_yield'
p261
aS'weight_LHEPd_91_yield_COWCorr'
p262
aS'weight_LHEPd_92_yield'
p263
aS'weight_LHEPd_92_yield_COWCorr'
p264
aS'weight_LHEPd_93_yield'
p265
aS'weight_LHEPd_93_yield_COWCorr'
p266
aS'weight_LHEPd_94_yield'
p267
aS'weight_LHEPd_94_yield_COWCorr'
p268
aS'weight_LHEPd_95_yield'
p269
aS'weight_LHEPd_95_yield_COWCorr'
p270
aS'weight_LHEPd_96_yield'
p271
aS'weight_LHEPd_96_yield_COWCorr'
p272
aS'weight_LHEPd_97_yield'
p273
aS'weight_LHEPd_97_yield_COWCorr'
p274
aS'weight_LHEPd_98_yield'
p275
aS'weight_LHEPd_98_yield_COWCorr'
p276
aS'weight_LHEPd_99_yield'
p277
aS'weight_LHEPd_99_yield_COWCorr'
p278
aS'weight_LHEPd_100_yield'
p279
aS'weight_LHEPd_100_yield_COWCorr'
p280
atp281
bsS'name'
p282
Nstp283
Rp284
ag15
(cpandas.core.indexes.numeric
Int64Index
p285
(dp286
g18
g19
(g20
(I0
tp287
g22
tp288
Rp289
(I1
(I6
tp290
g26
(S'i8'
p291
I0
I1
tp292
Rp293
(I3
S'<'
p294
NNNI-1
I-1
I0
tp295
bI00
S'\x00\x00\x00\x00\x00\x00\x00\x00\x01\x00\x00\x00\x00\x00\x00\x00\x02\x00\x00\x00\x00\x00\x00\x00\x03\x00\x00\x00\x00\x00\x00\x00\x04\x00\x00\x00\x00\x00\x00\x00\x05\x00\x00\x00\x00\x00\x00\x00'
p296
tp297
bsg282
Nstp298
Rp299
a(lp300
g19
(g20
(I0
tp301
g22
tp302
Rp303
(I1
(I1
I6
tp304
g26
(S'f8'
p305
I0
I1
tp306
Rp307
(I3
S'<'
p308
NNNI-1
I-1
I0
tp309
bI00
S'\x00\x00\x00\x00\x00,\xbf@\x00\x00\x00\x00\x00,\xbf@\x00\x00\x00\x00\x80\x0b\xda@\x00\x00\x00\x00\x80\x0b\xda@\x00\x00\x00\x00\x00\x00\xf0?\x00\x00\x00\x00\x00\x00\xf0\xbf'
p310
tp311
bag19
(g20
(I0
tp312
g22
tp313
Rp314
(I1
(I247
I6
tp315
g29
I00
(lp316
S'2022preEE'
p317
ag317
aS'2022postEE'
p318
ag318
aS'merged'
p319
ag319
aS'sig'
p320
ag320
ag320
ag320
aS'bkg'
p321
ag18
aS'GG2H_in'
p322
aS'GG2H_out'
p323
ag322
ag323
aS'bkg_mass'
p324
aS'data_obs'
p325
aS'ggH_in_2022preEE_hgg'
p326
aS'ggH_out_2022preEE_hgg'
p327
aS'ggH_in_2022postEE_hgg'
p328
aS'ggH_out_2022postEE_hgg'
p329
ag324
ag325
aS'ggh'
p330
ag330
ag330
ag330
aS'-'
p331
ag331
aS'medium_resolution'
p332
ag332
ag332
ag332
ag332
ag332
aS'../input_output_2022preEE_gg2h/ws_signal/output_GluGluHToGG_M125_13TeV_amcatnloFXFX_pythia8_GG2H_in.root'
p333
aS'../input_output_2022preEE_gg2h/ws_signal/output_GluGluHToGG_M125_13TeV_amcatnloFXFX_pythia8_GG2H_out.root'
p334
aS'../input_output_2022postEE_gg2h/ws_signal/output_GluGluHToGG_M125_13TeV_amcatnloFXFX_pythia8_GG2H_in.root'
p335
aS'../input_output_2022postEE_gg2h/ws_signal/output_GluGluHToGG_M125_13TeV_amcatnloFXFX_pythia8_GG2H_out.root'
p336
ag331
ag331
aS'ggh_in_125_13TeV_medium_resolution'
p337
aS'ggh_out_125_13TeV_medium_resolution'
p338
aS'ggh_in_125_13TeV_medium_resolution'
p339
aS'ggh_out_125_13TeV_medium_resolution'
p340
ag331
ag331
aS'./Models/signal/CMS-HGG_sigfit_packaged_medium_resolution.root'
p341
aS'./Models/signal/CMS-HGG_sigfit_packaged_medium_resolution.root'
p342
aS'./Models/signal/CMS-HGG_sigfit_packaged_medium_resolution.root'
p343
aS'./Models/signal/CMS-HGG_sigfit_packaged_medium_resolution.root'
p344
aS'./Models/background/CMS-HGG_multipdf_medium_resolution.root'
p345
ag345
aS'wsig_13TeV:hggpdfsmrel_GG2H_in_2022preEE_medium_resolution_13TeV'
p346
aS'wsig_13TeV:hggpdfsmrel_GG2H_out_2022preEE_medium_resolution_13TeV'
p347
aS'wsig_13TeV:hggpdfsmrel_GG2H_in_2022postEE_medium_resolution_13TeV'
p348
aS'wsig_13TeV:hggpdfsmrel_GG2H_out_2022postEE_medium_resolution_13TeV'
p349
aS'multipdf:CMS_hgg_medium_resolution_13TeV_bkgshape'
p350
aS'multipdf:roohist_data_mass_medium_resolution'
p351
aF0.07962481150363161
aF0.0007522731898025524
aF0.12886786654684598
aF0.0006356572174572286
ag331
ag331
aF3.4763723011013834e-07
aF3.2347202808606762e-09
aF4.844600695789453e-07
aF2.9900239041514305e-09
ag331
ag331
aF0.07962481150363161
aF0.0007522731898025524
aF0.12886786654684598
aF0.0006356572174572286
ag331
ag331
aF0.07947969196565939
aF0.0007596991294613845
aF0.12839381068156427
aF0.0006660340421679435
ag331
ag331
aF0.07977216237886736
aF0.0007453485670184611
aF0.1291997284947984
aF0.0006076719590562185
ag331
ag331
aF0.07979969729123267
aF0.0007540448417650085
aF0.12914416159023223
aF0.0006370141446916543
ag331
ag331
aF0.0794498514544853
aF0.0007505046442984003
aF0.12859127223227504
aF0.0006343021252677831
ag331
ag331
aF0.0799417122494277
aF0.0007552122441573836
aF0.12915727065718782
aF0.0006370592955554599
ag331
ag331
aF0.0793085410698084
aF0.0007493395098495865
aF0.12857878452300317
aF0.0006342566714395011
ag331
ag331
aF0.08069260115029583
aF0.0007612260953363245
aF0.13057758587451718
aF0.000643634335776097
ag331
ag331
aF0.07855983695445269
aF0.0007433561917123591
aF0.12716410685124593
aF0.0006277136109497833
ag331
ag331
aF0.07724628515397591
aF0.0006592395708908939
aF0.1285819349469849
aF0.0006199307755083646
ag331
ag331
aF0.08150337138100859
aF0.000804460868383673
aF0.12468152193364357
aF0.0006755752587361064
ag331
ag331
aF0.09233864459145896
aF0.0009583788832725579
aF0.14821446995042178
aF0.000769207822349571
ag331
ag331
aF0.09233864459145896
aF0.0009583788832725579
aF0.14821446995042178
aF0.000769207822349571
ag331
ag331
aF0.09506450345255545
aF0.0009550769535501862
aF0.1542542023374735
aF0.0007642178570414174
ag331
ag331
aF0.09506450345255545
aF0.0009550769535501862
aF0.1542542023374735
aF0.0007642178570414174
ag331
ag331
aF0.0772855352789326
aF0.0007506295748574689
aF0.123852268451634
aF0.0006387329306807787
ag331
ag331
aF0.0772855352789326
aF0.0007506295748574689
aF0.123852268451634
aF0.0006387329306807787
ag331
ag331
aF0.08173470808348217
aF0.0007505045177836671
aF0.13348566714601784
aF0.0006304574390784054
ag331
ag331
aF0.08173470808348217
aF0.0007505045177836671
aF0.13348566714601784
aF0.0006304574390784054
ag331
ag331
aF0.0668871598551114
aF0.000604334826646595
aF0.10801973430597285
aF0.0005248819631360461
ag331
ag331
aF0.0668871598551114
aF0.000604334826646595
aF0.10801973430597285
aF0.0005248819631360461
ag331
ag331
aF0.06862389982554838
aF0.0006049776551454378
aF0.11175868292686383
aF0.0005208039015295109
ag331
ag331
aF0.06862389982554838
aF0.0006049776551454378
aF0.11175868292686383
aF0.0005208039015295109
ag331
ag331
aF0.0824196353919404
aF0.0007869250212632914
aF0.13326989156845215
aF0.0006658230348614727
ag331
ag331
aF0.076570534052673
aF0.0007187947525976173
aF0.12397154906110695
aF0.0006054026166995883
ag331
ag331
aF0.0824196353919404
aF0.0007869250212632914
aF0.13326989156845215
aF0.0006658230348614727
ag331
ag331
aF0.076570534052673
aF0.0007187947525976173
aF0.12397154906110695
aF0.0006054026166995883
ag331
ag331
aF0.08088344044208667
aF0.0007632888037913566
aF0.1307992524693924
aF0.0006456526907747146
ag331
ag331
aF0.07803085796729724
aF0.0007379332948698
aF0.12643857354363564
aF0.0006241775783618237
ag331
ag331
aF0.08088344044208667
aF0.0007632888037913566
aF0.1307992524693924
aF0.0006456526907747146
ag331
ag331
aF0.07803085796729724
aF0.0007379332948698
aF0.12643857354363564
aF0.0006241775783618237
ag331
ag331
aF0.07958192752838548
aF0.0007693594823994901
aF0.12917291643582862
aF0.0006377624520339148
ag331
ag331
aF0.07979302063942935
aF0.0007604662445413502
aF0.1279613871192455
aF0.0005916636983202769
ag331
ag331
aF0.07958192752838548
aF0.0007693594823994901
aF0.12917291643582862
aF0.0006377624520339148
ag331
ag331
aF0.07979302063942935
aF0.0007604662445413502
aF0.1279613871192455
aF0.0005916636983202769
ag331
ag331
aF0.07972296637595355
aF0.0007531370143828302
aF0.12900476338704223
aF0.0006361366485247891
ag331
ag331
aF0.07972296637595355
aF0.0007531370143828302
aF0.12900476338704223
aF0.0006361366485247891
ag331
ag331
aF0.07948486570208431
aF0.0007514568976609704
aF0.12866691233725758
aF0.0006343881606849471
ag331
ag331
aF0.07948486570208431
aF0.0007514568976609704
aF0.12866691233725758
aF0.0006343881606849471
ag331
ag331
aF0.07976145432722356
aF0.0007539728970660667
aF0.1291166147171996
aF0.0006362591042418742
ag331
ag331
aF0.07976145432722356
aF0.0007539728970660667
aF0.1291166147171996
aF0.0006362591042418742
ag331
ag331
aF0.07980057494295165
aF0.000753527011260549
aF0.12918365314463276
aF0.0006370519662480615
ag331
ag331
aF0.07980057494295165
aF0.000753527011260549
aF0.12918365314463276
aF0.0006370519662480615
ag331
ag331
aF0.07979181701986891
aF0.0007539421228934913
aF0.12914448994973526
aF0.0006367782083945712
ag331
ag331
aF0.07979181701986891
aF0.0007539421228934913
aF0.12914448994973526
aF0.0006367782083945712
ag331
ag331
aF0.07979034072212954
aF0.0007539814781666534
aF0.12921722815493214
aF0.0006369312488487788
ag331
ag331
aF0.07979034072212954
aF0.0007539814781666534
aF0.12921722815493214
aF0.0006369312488487788
ag331
ag331
aF0.08000580386460411
aF0.0007543615816910614
aF0.12969802642762152
aF0.0006381406841986713
ag331
ag331
aF0.08000580386460411
aF0.0007543615816910614
aF0.12969802642762152
aF0.0006381406841986713
ag331
ag331
aF0.08003408794263774
aF0.0007558697040007967
aF0.12973081718074686
aF0.0006387722303162465
ag331
ag331
aF0.08003408794263774
aF0.0007558697040007967
aF0.12973081718074686
aF0.0006387722303162465
ag331
ag331
aF0.079565135798409
aF0.0007516241352233489
aF0.1287648153575919
aF0.0006347153084081315
ag331
ag331
aF0.079565135798409
aF0.0007516241352233489
aF0.1287648153575919
aF0.0006347153084081315
ag331
ag331
aF0.07965675521180973
aF0.0007521371217480152
aF0.1288877604468122
aF0.0006355632540989214
ag331
ag331
aF0.07965675521180973
aF0.0007521371217480152
aF0.1288877604468122
aF0.0006355632540989214
ag331
ag331
aF0.07928574847796037
aF0.0007496232108121528
aF0.12809203087641677
aF0.0006326357852845104
ag331
ag331
aF0.07928574847796037
aF0.0007496232108121528
aF0.12809203087641677
aF0.0006326357852845104
ag331
ag331
aF0.07976737686766053
aF0.0007538139523864194
aF0.12921554309255862
aF0.0006369349486011003
ag331
ag331
aF0.07976737686766053
aF0.0007538139523864194
aF0.12921554309255862
aF0.0006369349486011003
ag331
ag331
aF0.07950331421643518
aF0.0007520988073098898
aF0.128605963895194
aF0.0006349975691489957
ag331
ag331
aF0.07950331421643518
aF0.0007520988073098898
aF0.128605963895194
aF0.0006349975691489957
ag331
ag331
aF0.07957077246049578
aF0.0007521666208769696
aF0.12872824600275448
aF0.0006359102516984842
ag331
ag331
aF0.07957077246049578
aF0.0007521666208769696
aF0.12872824600275448
aF0.0006359102516984842
ag331
ag331
aF0.07964507105065494
aF0.0007529289945764077
aF0.1288593408805547
aF0.0006358988015737806
ag331
ag331
aF0.07964507105065494
aF0.0007529289945764077
aF0.1288593408805547
aF0.0006358988015737806
ag331
ag331
aF0.07940554354965901
aF0.0007500213953254893
aF0.12844119705281545
aF0.0006344299602243645
ag331
ag331
aF0.07940554354965901
aF0.0007500213953254893
aF0.12844119705281545
aF0.0006344299602243645
ag331
ag331
aF0.07939555902090507
aF0.0007520371488010784
aF0.12843310559101512
aF0.0006343441082776484
ag331
ag331
aF0.07939555902090507
aF0.0007520371488010784
aF0.12843310559101512
aF0.0006343441082776484
ag331
ag331
aF0.07987725363849983
aF0.0007532570134279636
aF0.12941515298472483
aF0.0006371772858906016
ag331
ag331
aF0.07987725363849983
aF0.0007532570134279636
aF0.12941515298472483
aF0.0006371772858906016
ag331
ag331
aF0.0798282978323799
aF0.000754535664305802
aF0.12919441084332461
aF0.0006368646228097078
ag331
ag331
aF0.0798282978323799
aF0.000754535664305802
aF0.12919441084332461
aF0.0006368646228097078
ag331
ag331
aF0.07953981231300804
aF0.0007521484944437238
aF0.12872683282919026
aF0.0006350882048017911
ag331
ag331
aF0.07953981231300804
aF0.0007521484944437238
aF0.12872683282919026
aF0.0006350882048017911
ag331
ag331
aF0.07978890023411234
aF0.0007533021598724335
aF0.12918244084241948
aF0.0006367245302072131
ag331
ag331
aF0.07978890023411234
aF0.0007533021598724335
aF0.12918244084241948
aF0.0006367245302072131
ag331
ag331
aF0.07952606605788672
aF0.000751969257989229
aF0.12875570333967506
aF0.0006353489758110008
ag331
ag331
aF0.07952606605788672
aF0.000751969257989229
aF0.12875570333967506
aF0.0006353489758110008
ag331
ag331
aF0.07962298343672536
aF0.0007525824075560625
aF0.12882767700877049
aF0.0006364148334209605
ag331
ag331
aF0.07962298343672536
aF0.0007525824075560625
aF0.12882767700877049
aF0.0006364148334209605
ag331
ag331
aF0.07962420558158351
aF0.000753406461611684
aF0.12888192062251852
aF0.0006352996733948599
ag331
ag331
aF0.07962420558158351
aF0.000753406461611684
aF0.12888192062251852
aF0.0006352996733948599
ag331
ag331
aF0.07961045499377152
aF0.0007527643611054876
aF0.1288480462076348
aF0.0006355462857602956
ag331
ag331
aF0.07961045499377152
aF0.0007527643611054876
aF0.1288480462076348
aF0.0006355462857602956
ag331
ag331
aF0.07957210507340659
aF0.000750726415672308
aF0.12880165102468272
aF0.000635513477051275
ag331
ag331
aF0.07957210507340659
aF0.000750726415672308
aF0.12880165102468272
aF0.000635513477051275
ag331
ag331
aF0.07949658635606908
aF0.0007506246914708144
aF0.12867426435938042
aF0.0006346904103920719
ag331
ag331
aF0.07949658635606908
aF0.0007506246914708144
aF0.12867426435938042
aF0.0006346904103920719
ag331
ag331
aF0.07968908856990183
aF0.0007528423887676246
aF0.12895811121851977
aF0.0006359013753295573
ag331
ag331
aF0.07968908856990183
aF0.0007528423887676246
aF0.12895811121851977
aF0.0006359013753295573
ag331
ag331
aF0.07944937065591773
aF0.0007525120398616376
aF0.1286453100266589
aF0.0006342253619082009
ag331
ag331
aF0.07944937065591773
aF0.0007525120398616376
aF0.1286453100266589
aF0.0006342253619082009
ag331
ag331
aF0.07959931714443706
aF0.0007522548483085822
aF0.12880323955280934
aF0.0006354716291888985
ag331
ag331
aF0.07959931714443706
aF0.0007522548483085822
aF0.12880323955280934
aF0.0006354716291888985
ag331
ag331
aF0.079466505291981
aF0.000750896674751315
aF0.12862415423049345
aF0.0006347118526510419
ag331
ag331
aF0.079466505291981
aF0.000750896674751315
aF0.12862415423049345
aF0.0006347118526510419
ag331
ag331
aF0.07966035864519225
aF0.0007528995372926852
aF0.12890480074340613
aF0.0006354638770343417
ag331
ag331
aF0.07966035864519225
aF0.0007528995372926852
aF0.12890480074340613
aF0.0006354638770343417
ag331
ag331
aF0.07955727387447997
aF0.0007533623424183432
aF0.1287530512559626
aF0.000635285133221561
ag331
ag331
aF0.07955727387447997
aF0.0007533623424183432
aF0.1287530512559626
aF0.000635285133221561
ag331
ag331
aF0.07954678689420687
aF0.0007519556009104267
aF0.12877440364999063
aF0.0006349234656900172
ag331
ag331
aF0.07954678689420687
aF0.0007519556009104267
aF0.12877440364999063
aF0.0006349234656900172
ag331
ag331
aF0.07962751693682459
aF0.0007509579671357678
aF0.12886275955963028
aF0.0006359085804279205
ag331
ag331
aF0.07962751693682459
aF0.0007509579671357678
aF0.12886275955963028
aF0.0006359085804279205
ag331
ag331
aF0.07972144245628668
aF0.0007527938683934137
aF0.12902657377372734
aF0.0006361611483014997
ag331
ag331
aF0.07972144245628668
aF0.0007527938683934137
aF0.12902657377372734
aF0.0006361611483014997
ag331
ag331
aF0.07962123361647673
aF0.0007522202204742652
aF0.12886518571464842
aF0.0006352039773712978
ag331
ag331
aF0.07962123361647673
aF0.0007522202204742652
aF0.12886518571464842
aF0.0006352039773712978
ag331
ag331
aF0.07964624255955913
aF0.0007518831263421742
aF0.12888852593164757
aF0.0006357778400281356
ag331
ag331
aF0.07964624255955913
aF0.0007518831263421742
aF0.12888852593164757
aF0.0006357778400281356
ag331
ag331
aF0.07961923876902609
aF0.0007522632860071205
aF0.12884769064386664
aF0.000635756384364713
ag331
ag331
aF0.07961923876902609
aF0.0007522632860071205
aF0.12884769064386664
aF0.000635756384364713
ag331
ag331
aF0.07959572501782104
aF0.0007525873522419231
aF0.12883355650037095
aF0.000635578785788719
ag331
ag331
aF0.07959572501782104
aF0.0007525873522419231
aF0.12883355650037095
aF0.000635578785788719
ag331
ag331
aF0.07964315497089211
aF0.0007539382972054469
aF0.12891630080271912
aF0.0006356853344670813
ag331
ag331
aF0.07964315497089211
aF0.0007539382972054469
aF0.12891630080271912
aF0.0006356853344670813
ag331
ag331
aF0.07964563212367486
aF0.0007527814942128862
aF0.12889380891540322
aF0.0006361695676682028
ag331
ag331
aF0.07964563212367486
aF0.0007527814942128862
aF0.12889380891540322
aF0.0006361695676682028
ag331
ag331
aF0.07957661272318789
aF0.0007517572318899566
aF0.12880481691709303
aF0.0006355817516583077
ag331
ag331
aF0.07957661272318789
aF0.0007517572318899566
aF0.12880481691709303
aF0.0006355817516583077
ag331
ag331
aF0.0796264819430033
aF0.0007524281639418087
aF0.12888603251349615
aF0.0006359442905394485
ag331
ag331
aF0.0796264819430033
aF0.0007524281639418087
aF0.12888603251349615
aF0.0006359442905394485
ag331
ag331
aF0.07963636256548731
aF0.0007531728178237941
aF0.12890273157583557
aF0.0006353366190437271
ag331
ag331
aF0.07963636256548731
aF0.0007531728178237941
aF0.12890273157583557
aF0.0006353366190437271
ag331
ag331
aF0.07963669446508446
aF0.000752673835313428
aF0.1288984144949313
aF0.0006352283593376194
ag331
ag331
aF0.07963669446508446
aF0.000752673835313428
aF0.1288984144949313
aF0.0006352283593376194
ag331
ag331
aF0.0796058765141513
aF0.0007528952486182999
aF0.12884140176859782
aF0.0006354574248307335
ag331
ag331
aF0.0796058765141513
aF0.0007528952486182999
aF0.12884140176859782
aF0.0006354574248307335
ag331
ag331
aF0.07960436136707376
aF0.0007520549848326838
aF0.12883732561890915
aF0.0006358612074913667
ag331
ag331
aF0.07960436136707376
aF0.0007520549848326838
aF0.12883732561890915
aF0.0006358612074913667
ag331
ag331
aF0.07959249446618
aF0.0007518955573052373
aF0.1288169192217196
aF0.0006355546429940513
ag331
ag331
aF0.07959249446618
aF0.0007518955573052373
aF0.1288169192217196
aF0.0006355546429940513
ag331
ag331
aF0.07961596572789745
aF0.0007525023444726172
aF0.1288457801419178
aF0.0006356541757761264
ag331
ag331
aF0.07961596572789745
aF0.0007525023444726172
aF0.1288457801419178
aF0.0006356541757761264
ag331
ag331
aF0.07961488224653632
aF0.0007515462391405947
aF0.12885028937518284
aF0.00063569018806127
ag331
ag331
aF0.07961488224653632
aF0.0007515462391405947
aF0.12885028937518284
aF0.00063569018806127
ag331
ag331
aF0.0796700954902142
aF0.0007525989738906923
aF0.12891616904819214
aF0.0006363344014616546
ag331
ag331
aF0.0796700954902142
aF0.0007525989738906923
aF0.12891616904819214
aF0.0006363344014616546
ag331
ag331
aF0.07961616784876693
aF0.0007513938612205488
aF0.1288466287152988
aF0.0006355365551119985
ag331
ag331
aF0.07961616784876693
aF0.0007513938612205488
aF0.1288466287152988
aF0.0006355365551119985
ag331
ag331
aF0.07961362725344705
aF0.0007536396551783503
aF0.1288637095124183
aF0.0006357364628800218
ag331
ag331
aF0.07961362725344705
aF0.0007536396551783503
aF0.1288637095124183
aF0.0006357364628800218
ag331
ag331
aF0.07964811227535343
aF0.0007514931681350886
aF0.1289074239164994
aF0.0006354370611702707
ag331
ag331
aF0.07964811227535343
aF0.0007514931681350886
aF0.1289074239164994
aF0.0006354370611702707
ag331
ag331
aF0.07961964821447054
aF0.0007520854666958971
aF0.12886313697175308
aF0.0006361167489869004
ag331
ag331
aF0.07961964821447054
aF0.0007520854666958971
aF0.12886313697175308
aF0.0006361167489869004
ag331
ag331
aF0.07965220918684136
aF0.0007516606745799299
aF0.128906456817438
aF0.000635475038212706
ag331
ag331
aF0.07965220918684136
aF0.0007516606745799299
aF0.128906456817438
aF0.000635475038212706
ag331
ag331
aF0.07963156527205871
aF0.0007518022627628938
aF0.12885734264719068
aF0.000635778040518371
ag331
ag331
aF0.07963156527205871
aF0.0007518022627628938
aF0.12885734264719068
aF0.000635778040518371
ag331
ag331
aF0.07964337220339679
aF0.0007520958864735647
aF0.12889208870428778
aF0.0006357904622145931
ag331
ag331
aF0.07964337220339679
aF0.0007520958864735647
aF0.12889208870428778
aF0.0006357904622145931
ag331
ag331
aF0.07962060968231253
aF0.0007519565919464143
aF0.12885583183509575
aF0.0006355568559110288
ag331
ag331
aF0.07962060968231253
aF0.0007519565919464143
aF0.12885583183509575
aF0.0006355568559110288
ag331
ag331
aF0.07961908689101345
aF0.0007520100843279478
aF0.1288702989012845
aF0.000635639696678953
ag331
ag331
aF0.07961908689101345
aF0.0007520100843279478
aF0.1288702989012845
aF0.000635639696678953
ag331
ag331
aF0.07965738442154888
aF0.0007530074773107198
aF0.12892980894853992
aF0.00063573069151484
ag331
ag331
aF0.07965738442154888
aF0.0007530074773107198
aF0.12892980894853992
aF0.00063573069151484
ag331
ag331
aF0.07963399654364511
aF0.000752234629372051
aF0.1288760086104123
aF0.0006356761417939978
ag331
ag331
aF0.07963399654364511
aF0.000752234629372051
aF0.1288760086104123
aF0.0006356761417939978
ag331
ag331
aF0.07964902451161786
aF0.0007524773144580779
aF0.12890944707884797
aF0.0006359359520891289
ag331
ag331
aF0.07964902451161786
aF0.0007524773144580779
aF0.12890944707884797
aF0.0006359359520891289
ag331
ag331
aF0.07966247796959201
aF0.0007527298060300864
aF0.1289239450977199
aF0.0006359463508980298
ag331
ag331
aF0.07966247796959201
aF0.0007527298060300864
aF0.1289239450977199
aF0.0006359463508980298
ag331
ag331
aF0.07963995612657979
aF0.0007524973999985284
aF0.12890128428580408
aF0.000635674790034648
ag331
ag331
aF0.07963995612657979
aF0.0007524973999985284
aF0.12890128428580408
aF0.000635674790034648
ag331
ag331
aF0.07964381358658956
aF0.0007522466553664892
aF0.12889639998254676
aF0.0006359243366248729
ag331
ag331
aF0.07964381358658956
aF0.0007522466553664892
aF0.12889639998254676
aF0.0006359243366248729
ag331
ag331
aF0.07962859069675973
aF0.0007523935653299564
aF0.12888581234889723
aF0.0006360459073776463
ag331
ag331
aF0.07962859069675973
aF0.0007523935653299564
aF0.12888581234889723
aF0.0006360459073776463
ag331
ag331
aF0.07963559917182915
aF0.0007523302227044464
aF0.12888952132746712
aF0.000635562546014225
ag331
ag331
aF0.07963559917182915
aF0.0007523302227044464
aF0.12888952132746712
aF0.000635562546014225
ag331
ag331
aF0.07963270845535322
aF0.0007520461020278556
aF0.12887456336148395
aF0.0006359979706982359
ag331
ag331
aF0.07963270845535322
aF0.0007520461020278556
aF0.12887456336148395
aF0.0006359979706982359
ag331
ag331
aF0.07963847816160179
aF0.0007525774019383653
aF0.1288839576430351
aF0.0006358472357573404
ag331
ag331
aF0.07963847816160179
aF0.0007525774019383653
aF0.1288839576430351
aF0.0006358472357573404
ag331
ag331
aF0.0796282550279712
aF0.0007523972985941658
aF0.12886512767664263
aF0.0006356801040728363
ag331
ag331
aF0.0796282550279712
aF0.0007523972985941658
aF0.12886512767664263
aF0.0006356801040728363
ag331
ag331
aF0.0796339008284443
aF0.0007524073683080815
aF0.12888245776613494
aF0.0006352735432161498
ag331
ag331
aF0.0796339008284443
aF0.0007524073683080815
aF0.12888245776613494
aF0.0006352735432161498
ag331
ag331
aF0.079620740929726
aF0.0007522208059166259
aF0.12886280587785648
aF0.0006353948256142854
ag331
ag331
aF0.079620740929726
aF0.0007522208059166259
aF0.12886280587785648
aF0.0006353948256142854
ag331
ag331
aF0.07960945532122712
aF0.0007523710060397273
aF0.12884639992764957
aF0.0006355457301594167
ag331
ag331
aF0.07960945532122712
aF0.0007523710060397273
aF0.12884639992764957
aF0.0006355457301594167
ag331
ag331
aF0.07962454757813843
aF0.0007523139809105995
aF0.12886318309888015
aF0.0006356106091434468
ag331
ag331
aF0.07962454757813843
aF0.0007523139809105995
aF0.12886318309888015
aF0.0006356106091434468
ag331
ag331
aF0.0796651904208441
aF0.0007527807478692716
aF0.12893289710967354
aF0.0006359455608478149
ag331
ag331
aF0.0796651904208441
aF0.0007527807478692716
aF0.12893289710967354
aF0.0006359455608478149
ag331
ag331
aF0.07962330449910412
aF0.0007528543615060137
aF0.1288633164013033
aF0.0006359014015807559
ag331
ag331
aF0.07962330449910412
aF0.0007528543615060137
aF0.1288633164013033
aF0.0006359014015807559
ag331
ag331
aF0.0796119341180767
aF0.0007521893145026766
aF0.12884591319529215
aF0.0006355320763182611
ag331
ag331
aF0.0796119341180767
aF0.0007521893145026766
aF0.12884591319529215
aF0.0006355320763182611
ag331
ag331
aF0.07963114631412788
aF0.0007525375396637069
aF0.12887597249426475
aF0.0006357899314039382
ag331
ag331
aF0.07963114631412788
aF0.0007525375396637069
aF0.12887597249426475
aF0.0006357899314039382
ag331
ag331
aF0.07961774327395002
aF0.0007521284242389907
aF0.12884753010197308
aF0.0006355486200963558
ag331
ag331
aF0.07961774327395002
aF0.0007521284242389907
aF0.12884753010197308
aF0.0006355486200963558
ag331
ag331
aF0.07963358384723111
aF0.0007523726591399632
aF0.12888544761272144
aF0.0006359060391807945
ag331
ag331
aF0.07963358384723111
aF0.0007523726591399632
aF0.12888544761272144
aF0.0006359060391807945
ag331
ag331
aF0.07963609142355688
aF0.0007526313342839237
aF0.12888621160140176
aF0.0006358337171362152
ag331
ag331
aF0.07963609142355688
aF0.0007526313342839237
aF0.12888621160140176
aF0.0006358337171362152
ag331
ag331
aF0.07963432235300723
aF0.0007524088404218415
aF0.12888952412403434
aF0.000635770448618127
ag331
ag331
aF0.07963432235300723
aF0.0007524088404218415
aF0.12888952412403434
aF0.000635770448618127
ag331
ag331
aF0.07962195361391022
aF0.0007523940226905058
aF0.12886212672761269
aF0.0006355881385410294
ag331
ag331
aF0.07962195361391022
aF0.0007523940226905058
aF0.12886212672761269
aF0.0006355881385410294
ag331
ag331
aF0.07961449715828771
aF0.0007520912674685175
aF0.12884911101167432
aF0.0006356925289103613
ag331
ag331
aF0.07961449715828771
aF0.0007520912674685175
aF0.12884911101167432
aF0.0006356925289103613
ag331
ag331
aF0.0796334765678289
aF0.0007525452097459985
aF0.12888301255681797
aF0.0006358439413140767
ag331
ag331
aF0.0796334765678289
aF0.0007525452097459985
aF0.12888301255681797
aF0.0006358439413140767
ag331
ag331
aF0.07962796541311208
aF0.0007521870242478039
aF0.1288687438903522
aF0.0006356378075503291
ag331
ag331
aF0.07962796541311208
aF0.0007521870242478039
aF0.1288687438903522
aF0.0006356378075503291
ag331
ag331
aF0.07962271360451019
aF0.0007520872237973753
aF0.12887002255353583
aF0.0006355091247791513
ag331
ag331
aF0.07962271360451019
aF0.0007520872237973753
aF0.12887002255353583
aF0.0006355091247791513
ag331
ag331
aF0.07962938299981347
aF0.000752555695216121
aF0.12887984675518796
aF0.0006359095302789514
ag331
ag331
aF0.07962938299981347
aF0.000752555695216121
aF0.12887984675518796
aF0.0006359095302789514
ag331
ag331
aF0.0796276181642986
aF0.0007522950466241682
aF0.1288698842768974
aF0.0006357509551069328
ag331
ag331
aF0.0796276181642986
aF0.0007522950466241682
aF0.1288698842768974
aF0.0006357509551069328
ag331
ag331
aF0.07963744583447943
aF0.0007523177580825453
aF0.12888405302211278
aF0.0006359515895797404
ag331
ag331
aF0.07963744583447943
aF0.0007523177580825453
aF0.12888405302211278
aF0.0006359515895797404
ag331
ag331
aF0.07961398607040601
aF0.000752271103906961
aF0.12885619738722795
aF0.0006355616053721812
ag331
ag331
aF0.07961398607040601
aF0.000752271103906961
aF0.12885619738722795
aF0.0006355616053721812
ag331
ag331
aF0.07961612909028573
aF0.0007521787477432229
aF0.12884970944899118
aF0.0006356940083101415
ag331
ag331
aF0.07961612909028573
aF0.0007521787477432229
aF0.12884970944899118
aF0.0006356940083101415
ag331
ag331
aF0.0796253122347088
aF0.0007523274352047255
aF0.12887244607727583
aF0.0006359077562055451
ag331
ag331
aF0.0796253122347088
aF0.0007523274352047255
aF0.12887244607727583
aF0.0006359077562055451
ag331
ag331
aF0.07961234800120354
aF0.0007519786016882509
aF0.12885922702288935
aF0.0006354948189959992
ag331
ag331
aF0.07961234800120354
aF0.0007519786016882509
aF0.12885922702288935
aF0.0006354948189959992
ag331
ag331
aF0.07963080287707112
aF0.0007522551517186588
aF0.12887036862614135
aF0.000635749855223276
ag331
ag331
aF0.07963080287707112
aF0.0007522551517186588
aF0.12887036862614135
aF0.000635749855223276
ag331
ag331
aF0.07962963241945048
aF0.0007523927459209439
aF0.12887141623907392
aF0.0006356904309811344
ag331
ag331
aF0.07962963241945048
aF0.0007523927459209439
aF0.12887141623907392
aF0.0006356904309811344
ag331
ag331
aF0.07963578077452789
aF0.0007524994300618157
aF0.12888077527834757
aF0.0006357638657428948
ag331
ag331
aF0.07963578077452789
aF0.0007524994300618157
aF0.12888077527834757
aF0.0006357638657428948
ag331
ag331
aF0.07962410478967938
aF0.0007522678318326562
aF0.12886662020484638
aF0.0006356508199425469
ag331
ag331
aF0.07962410478967938
aF0.0007522678318326562
aF0.12886662020484638
aF0.0006356508199425469
ag331
ag331
atp352
ba(lp353
g15
(g16
(dp354
g18
g19
(g20
(I0
tp355
g22
tp356
Rp357
(I1
(I1
tp358
g29
I00
(lp359
g43
atp360
bsg282
Nstp361
Rp362
ag15
(g16
(dp363
g18
g19
(g20
(I0
tp364
g22
tp365
Rp366
(I1
(I247
tp367
g29
I00
(lp368
g33
ag34
ag35
ag36
ag37
ag38
ag39
ag40
ag41
ag42
ag44
ag45
ag46
ag47
ag48
ag49
ag50
ag51
ag52
ag53
ag54
ag55
ag56
ag57
ag58
ag59
ag60
ag61
ag62
ag63
ag64
ag65
ag66
ag67
ag68
ag69
ag70
ag71
ag72
ag73
ag74
ag75
ag76
ag77
ag78
ag79
ag80
ag81
ag82
ag83
ag84
ag85
ag86
ag87
ag88
ag89
ag90
ag91
ag92
ag93
ag94
ag95
ag96
ag97
ag98
ag99
ag100
ag101
ag102
ag103
ag104
ag105
ag106
ag107
ag108
ag109
ag110
ag111
ag112
ag113
ag114
ag115
ag116
ag117
ag118
ag119
ag120
ag121
ag122
ag123
ag124
ag125
ag126
ag127
ag128
ag129
ag130
ag131
ag132
ag133
ag134
ag135
ag136
ag137
ag138
ag139
ag140
ag141
ag142
ag143
ag144
ag145
ag146
ag147
ag148
ag149
ag150
ag151
ag152
ag153
ag154
ag155
ag156
ag157
ag158
ag159
ag160
ag161
ag162
ag163
ag164
ag165
ag166
ag167
ag168
ag169
ag170
ag171
ag172
ag173
ag174
ag175
ag176
ag177
ag178
ag179
ag180
ag181
ag182
ag183
ag184
ag185
ag186
ag187
ag188
ag189
ag190
ag191
ag192
ag193
ag194
ag195
ag196
ag197
ag198
ag199
ag200
ag201
ag202
ag203
ag204
ag205
ag206
ag207
ag208
ag209
ag210
ag211
ag212
ag213
ag214
ag215
ag216
ag217
ag218
ag219
ag220
ag221
ag222
ag223
ag224
ag225
ag226
ag227
ag228
ag229
ag230
ag231
ag232
ag233
ag234
ag235
ag236
ag237
ag238
ag239
ag240
ag241
ag242
ag243
ag244
ag245
ag246
ag247
ag248
ag249
ag250
ag251
ag252
ag253
ag254
ag255
ag256
ag257
ag258
ag259
ag260
ag261
ag262
ag263
ag264
ag265
ag266
ag267
ag268
ag269
ag270
ag271
ag272
ag273
ag274
ag275
ag276
ag277
ag278
ag279
ag280
atp369
bsg282
Nstp370
Rp371
a(dp372
S'0.14.1'
p373
(dp374
S'axes'
p375
g14
sS'blocks'
p376
(lp377
(dp378
S'mgr_locs'
p379
c__builtin__
slice
p380
(I10
I11
I1
tp381
Rp382
sS'values'
p383
g303
sa(dp384
g379
g19
(g20
(I0
tp385
g22
tp386
Rp387
(I1
(I247
tp388
g293
I00
S'\x00\x00\x00\x00\x00\x00\x00\x00\x01\x00\x00\x00\x00\x00\x00\x00\x02\x00\x00\x00\x00\x00\x00\x00\x03\x00\x00\x00\x00\x00\x00\x00\x04\x00\x00\x00\x00\x00\x00\x00\x05\x00\x00\x00\x00\x00\x00\x00\x06\x00\x00\x00\x00\x00\x00\x00\x07\x00\x00\x00\x00\x00\x00\x00\x08\x00\x00\x00\x00\x00\x00\x00\t\x00\x00\x00\x00\x00\x00\x00\x0b\x00\x00\x00\x00\x00\x00\x00\x0c\x00\x00\x00\x00\x00\x00\x00\r\x00\x00\x00\x00\x00\x00\x00\x0e\x00\x00\x00\x00\x00\x00\x00\x0f\x00\x00\x00\x00\x00\x00\x00\x10\x00\x00\x00\x00\x00\x00\x00\x11\x00\x00\x00\x00\x00\x00\x00\x12\x00\x00\x00\x00\x00\x00\x00\x13\x00\x00\x00\x00\x00\x00\x00\x14\x00\x00\x00\x00\x00\x00\x00\x15\x00\x00\x00\x00\x00\x00\x00\x16\x00\x00\x00\x00\x00\x00\x00\x17\x00\x00\x00\x00\x00\x00\x00\x18\x00\x00\x00\x00\x00\x00\x00\x19\x00\x00\x00\x00\x00\x00\x00\x1a\x00\x00\x00\x00\x00\x00\x00\x1b\x00\x00\x00\x00\x00\x00\x00\x1c\x00\x00\x00\x00\x00\x00\x00\x1d\x00\x00\x00\x00\x00\x00\x00\x1e\x00\x00\x00\x00\x00\x00\x00\x1f\x00\x00\x00\x00\x00\x00\x00 \x00\x00\x00\x00\x00\x00\x00!\x00\x00\x00\x00\x00\x00\x00"\x00\x00\x00\x00\x00\x00\x00#\x00\x00\x00\x00\x00\x00\x00$\x00\x00\x00\x00\x00\x00\x00%\x00\x00\x00\x00\x00\x00\x00&\x00\x00\x00\x00\x00\x00\x00\'\x00\x00\x00\x00\x00\x00\x00(\x00\x00\x00\x00\x00\x00\x00)\x00\x00\x00\x00\x00\x00\x00*\x00\x00\x00\x00\x00\x00\x00+\x00\x00\x00\x00\x00\x00\x00,\x00\x00\x00\x00\x00\x00\x00-\x00\x00\x00\x00\x00\x00\x00.\x00\x00\x00\x00\x00\x00\x00/\x00\x00\x00\x00\x00\x00\x000\x00\x00\x00\x00\x00\x00\x001\x00\x00\x00\x00\x00\x00\x002\x00\x00\x00\x00\x00\x00\x003\x00\x00\x00\x00\x00\x00\x004\x00\x00\x00\x00\x00\x00\x005\x00\x00\x00\x00\x00\x00\x006\x00\x00\x00\x00\x00\x00\x007\x00\x00\x00\x00\x00\x00\x008\x00\x00\x00\x00\x00\x00\x009\x00\x00\x00\x00\x00\x00\x00:\x00\x00\x00\x00\x00\x00\x00;\x00\x00\x00\x00\x00\x00\x00<\x00\x00\x00\x00\x00\x00\x00=\x00\x00\x00\x00\x00\x00\x00>\x00\x00\x00\x00\x00\x00\x00?\x00\x00\x00\x00\x00\x00\x00@\x00\x00\x00\x00\x00\x00\x00A\x00\x00\x00\x00\x00\x00\x00B\x00\x00\x00\x00\x00\x00\x00C\x00\x00\x00\x00\x00\x00\x00D\x00\x00\x00\x00\x00\x00\x00E\x00\x00\x00\x00\x00\x00\x00F\x00\x00\x00\x00\x00\x00\x00G\x00\x00\x00\x00\x00\x00\x00H\x00\x00\x00\x00\x00\x00\x00I\x00\x00\x00\x00\x00\x00\x00J\x00\x00\x00\x00\x00\x00\x00K\x00\x00\x00\x00\x00\x00\x00L\x00\x00\x00\x00\x00\x00\x00M\x00\x00\x00\x00\x00\x00\x00N\x00\x00\x00\x00\x00\x00\x00O\x00\x00\x00\x00\x00\x00\x00P\x00\x00\x00\x00\x00\x00\x00Q\x00\x00\x00\x00\x00\x00\x00R\x00\x00\x00\x00\x00\x00\x00S\x00\x00\x00\x00\x00\x00\x00T\x00\x00\x00\x00\x00\x00\x00U\x00\x00\x00\x00\x00\x00\x00V\x00\x00\x00\x00\x00\x00\x00W\x00\x00\x00\x00\x00\x00\x00X\x00\x00\x00\x00\x00\x00\x00Y\x00\x00\x00\x00\x00\x00\x00Z\x00\x00\x00\x00\x00\x00\x00[\x00\x00\x00\x00\x00\x00\x00\\\x00\x00\x00\x00\x00\x00\x00]\x00\x00\x00\x00\x00\x00\x00^\x00\x00\x00\x00\x00\x00\x00_\x00\x00\x00\x00\x00\x00\x00`\x00\x00\x00\x00\x00\x00\x00a\x00\x00\x00\x00\x00\x00\x00b\x00\x00\x00\x00\x00\x00\x00c\x00\x00\x00\x00\x00\x00\x00d\x00\x00\x00\x00\x00\x00\x00e\x00\x00\x00\x00\x00\x00\x00f\x00\x00\x00\x00\x00\x00\x00g\x00\x00\x00\x00\x00\x00\x00h\x00\x00\x00\x00\x00\x00\x00i\x00\x00\x00\x00\x00\x00\x00j\x00\x00\x00\x00\x00\x00\x00k\x00\x00\x00\x00\x00\x00\x00l\x00\x00\x00\x00\x00\x00\x00m\x00\x00\x00\x00\x00\x00\x00n\x00\x00\x00\x00\x00\x00\x00o\x00\x00\x00\x00\x00\x00\x00p\x00\x00\x00\x00\x00\x00\x00q\x00\x00\x00\x00\x00\x00\x00r\x00\x00\x00\x00\x00\x00\x00s\x00\x00\x00\x00\x00\x00\x00t\x00\x00\x00\x00\x00\x00\x00u\x00\x00\x00\x00\x00\x00\x00v\x00\x00\x00\x00\x00\x00\x00w\x00\x00\x00\x00\x00\x00\x00x\x00\x00\x00\x00\x00\x00\x00y\x00\x00\x00\x00\x00\x00\x00z\x00\x00\x00\x00\x00\x00\x00{\x00\x00\x00\x00\x00\x00\x00|\x00\x00\x00\x00\x00\x00\x00}\x00\x00\x00\x00\x00\x00\x00~\x00\x00\x00\x00\x00\x00\x00\x7f\x00\x00\x00\x00\x00\x00\x00\x80\x00\x00\x00\x00\x00\x00\x00\x81\x00\x00\x00\x00\x00\x00\x00\x82\x00\x00\x00\x00\x00\x00\x00\x83\x00\x00\x00\x00\x00\x00\x00\x84\x00\x00\x00\x00\x00\x00\x00\x85\x00\x00\x00\x00\x00\x00\x00\x86\x00\x00\x00\x00\x00\x00\x00\x87\x00\x00\x00\x00\x00\x00\x00\x88\x00\x00\x00\x00\x00\x00\x00\x89\x00\x00\x00\x00\x00\x00\x00\x8a\x00\x00\x00\x00\x00\x00\x00\x8b\x00\x00\x00\x00\x00\x00\x00\x8c\x00\x00\x00\x00\x00\x00\x00\x8d\x00\x00\x00\x00\x00\x00\x00\x8e\x00\x00\x00\x00\x00\x00\x00\x8f\x00\x00\x00\x00\x00\x00\x00\x90\x00\x00\x00\x00\x00\x00\x00\x91\x00\x00\x00\x00\x00\x00\x00\x92\x00\x00\x00\x00\x00\x00\x00\x93\x00\x00\x00\x00\x00\x00\x00\x94\x00\x00\x00\x00\x00\x00\x00\x95\x00\x00\x00\x00\x00\x00\x00\x96\x00\x00\x00\x00\x00\x00\x00\x97\x00\x00\x00\x00\x00\x00\x00\x98\x00\x00\x00\x00\x00\x00\x00\x99\x00\x00\x00\x00\x00\x00\x00\x9a\x00\x00\x00\x00\x00\x00\x00\x9b\x00\x00\x00\x00\x00\x00\x00\x9c\x00\x00\x00\x00\x00\x00\x00\x9d\x00\x00\x00\x00\x00\x00\x00\x9e\x00\x00\x00\x00\x00\x00\x00\x9f\x00\x00\x00\x00\x00\x00\x00\xa0\x00\x00\x00\x00\x00\x00\x00\xa1\x00\x00\x00\x00\x00\x00\x00\xa2\x00\x00\x00\x00\x00\x00\x00\xa3\x00\x00\x00\x00\x00\x00\x00\xa4\x00\x00\x00\x00\x00\x00\x00\xa5\x00\x00\x00\x00\x00\x00\x00\xa6\x00\x00\x00\x00\x00\x00\x00\xa7\x00\x00\x00\x00\x00\x00\x00\xa8\x00\x00\x00\x00\x00\x00\x00\xa9\x00\x00\x00\x00\x00\x00\x00\xaa\x00\x00\x00\x00\x00\x00\x00\xab\x00\x00\x00\x00\x00\x00\x00\xac\x00\x00\x00\x00\x00\x00\x00\xad\x00\x00\x00\x00\x00\x00\x00\xae\x00\x00\x00\x00\x00\x00\x00\xaf\x00\x00\x00\x00\x00\x00\x00\xb0\x00\x00\x00\x00\x00\x00\x00\xb1\x00\x00\x00\x00\x00\x00\x00\xb2\x00\x00\x00\x00\x00\x00\x00\xb3\x00\x00\x00\x00\x00\x00\x00\xb4\x00\x00\x00\x00\x00\x00\x00\xb5\x00\x00\x00\x00\x00\x00\x00\xb6\x00\x00\x00\x00\x00\x00\x00\xb7\x00\x00\x00\x00\x00\x00\x00\xb8\x00\x00\x00\x00\x00\x00\x00\xb9\x00\x00\x00\x00\x00\x00\x00\xba\x00\x00\x00\x00\x00\x00\x00\xbb\x00\x00\x00\x00\x00\x00\x00\xbc\x00\x00\x00\x00\x00\x00\x00\xbd\x00\x00\x00\x00\x00\x00\x00\xbe\x00\x00\x00\x00\x00\x00\x00\xbf\x00\x00\x00\x00\x00\x00\x00\xc0\x00\x00\x00\x00\x00\x00\x00\xc1\x00\x00\x00\x00\x00\x00\x00\xc2\x00\x00\x00\x00\x00\x00\x00\xc3\x00\x00\x00\x00\x00\x00\x00\xc4\x00\x00\x00\x00\x00\x00\x00\xc5\x00\x00\x00\x00\x00\x00\x00\xc6\x00\x00\x00\x00\x00\x00\x00\xc7\x00\x00\x00\x00\x00\x00\x00\xc8\x00\x00\x00\x00\x00\x00\x00\xc9\x00\x00\x00\x00\x00\x00\x00\xca\x00\x00\x00\x00\x00\x00\x00\xcb\x00\x00\x00\x00\x00\x00\x00\xcc\x00\x00\x00\x00\x00\x00\x00\xcd\x00\x00\x00\x00\x00\x00\x00\xce\x00\x00\x00\x00\x00\x00\x00\xcf\x00\x00\x00\x00\x00\x00\x00\xd0\x00\x00\x00\x00\x00\x00\x00\xd1\x00\x00\x00\x00\x00\x00\x00\xd2\x00\x00\x00\x00\x00\x00\x00\xd3\x00\x00\x00\x00\x00\x00\x00\xd4\x00\x00\x00\x00\x00\x00\x00\xd5\x00\x00\x00\x00\x00\x00\x00\xd6\x00\x00\x00\x00\x00\x00\x00\xd7\x00\x00\x00\x00\x00\x00\x00\xd8\x00\x00\x00\x00\x00\x00\x00\xd9\x00\x00\x00\x00\x00\x00\x00\xda\x00\x00\x00\x00\x00\x00\x00\xdb\x00\x00\x00\x00\x00\x00\x00\xdc\x00\x00\x00\x00\x00\x00\x00\xdd\x00\x00\x00\x00\x00\x00\x00\xde\x00\x00\x00\x00\x00\x00\x00\xdf\x00\x00\x00\x00\x00\x00\x00\xe0\x00\x00\x00\x00\x00\x00\x00\xe1\x00\x00\x00\x00\x00\x00\x00\xe2\x00\x00\x00\x00\x00\x00\x00\xe3\x00\x00\x00\x00\x00\x00\x00\xe4\x00\x00\x00\x00\x00\x00\x00\xe5\x00\x00\x00\x00\x00\x00\x00\xe6\x00\x00\x00\x00\x00\x00\x00\xe7\x00\x00\x00\x00\x00\x00\x00\xe8\x00\x00\x00\x00\x00\x00\x00\xe9\x00\x00\x00\x00\x00\x00\x00\xea\x00\x00\x00\x00\x00\x00\x00\xeb\x00\x00\x00\x00\x00\x00\x00\xec\x00\x00\x00\x00\x00\x00\x00\xed\x00\x00\x00\x00\x00\x00\x00\xee\x00\x00\x00\x00\x00\x00\x00\xef\x00\x00\x00\x00\x00\x00\x00\xf0\x00\x00\x00\x00\x00\x00\x00\xf1\x00\x00\x00\x00\x00\x00\x00\xf2\x00\x00\x00\x00\x00\x00\x00\xf3\x00\x00\x00\x00\x00\x00\x00\xf4\x00\x00\x00\x00\x00\x00\x00\xf5\x00\x00\x00\x00\x00\x00\x00\xf6\x00\x00\x00\x00\x00\x00\x00\xf7\x00\x00\x00\x00\x00\x00\x00'
p389
tp390
bsg383
g314
sasstp391
bsb.